(dp1
S'collector'
p2
S'coverage v3.0.1'
p3
sS'lines'
p4
(dp5
S'/usr/lib/python2.6/site-packages/sqlalchemy/engine/default.py'
p6
(lp7
I47
aI48
aI49
aI50
aI51
aI52
aI53
aI55
aI56
aI59
aI60
aI61
aI63
aI64
aI78
aI86
aI100
aI120
aI123
aI131
aI132
aI133
aI134
aI136
aI140
aI143
aI144
aI145
aI147
aI148
aI150
aI152
aI155
aI157
aI158
aI159
aI160
aI163
aI167
aI168
aI170
aI171
aI172
aI173
aI175
aI177
aI178
aI179
aI180
aI183
aI184
aI185
aI186
aI202
aI203
aI205
aI206
aI223
aI224
aI225
aI226
aI227
aI228
aI229
aI230
aI232
aI233
aI252
aI255
aI258
aI261
aI270
aI273
aI276
aI285
aI288
aI291
aI335
aI336
aI354
aI355
aI357
aI358
aI359
aI363
aI364
aI366
aI367
aI368
aI370
aI372
aI373
asS'/afs/cern.ch/user/a/aalvarez/Source/fts3-rest/src/fts3rest/fts3rest/model/meta.py'
p8
(lp9
I1
aI2
aI3
aI5
aI8
aI11
asS'/afs/cern.ch/user/a/aalvarez/Source/fts3-rest/src/fts3rest/fts3rest/lib/__init__.py'
p10
(lp11
I1
asS'/usr/lib/python2.6/site-packages/weberror/__init__.py'
p12
(lp13
I1
asS'/afs/cern.ch/user/a/aalvarez/Source/fts3-rest/src/fts3rest/fts3rest/controllers/jobs.py'
p14
(lp15
I1
aI2
aI3
aI4
aI5
aI6
aI7
aI8
aI9
aI10
aI12
aI13
aI14
aI15
aI16
aI17
aI18
aI19
aI22
aI24
aI25
aI26
aI27
aI28
aI29
aI30
aI31
aI32
aI33
aI34
aI38
aI43
aI44
aI45
aI46
aI47
aI48
aI49
aI52
aI59
aI62
aI63
aI64
aI65
aI66
aI68
aI71
aI77
aI78
aI79
aI80
aI83
aI88
aI89
aI90
aI91
aI94
aI98
aI99
aI100
aI101
aI102
aI103
aI104
aI105
aI108
aI109
aI110
aI111
aI112
aI114
aI117
aI121
aI124
aI125
aI126
aI127
aI128
aI129
aI130
aI131
aI132
aI135
aI136
aI137
aI138
aI139
aI140
aI141
aI142
aI143
aI144
aI145
aI146
aI147
aI148
aI149
aI150
aI152
aI153
aI156
aI161
aI162
aI163
aI168
aI169
aI170
aI171
aI172
aI173
aI174
aI177
aI178
aI179
aI180
aI181
aI182
aI183
aI184
aI185
aI186
aI187
aI188
aI189
aI190
aI191
aI192
aI193
aI194
aI195
aI196
aI199
aI203
aI204
aI207
aI208
aI210
aI213
aI214
aI215
aI216
aI217
aI219
aI220
aI223
aI224
aI225
aI226
aI230
aI231
aI232
aI233
aI234
aI235
aI236
aI238
aI240
aI242
aI243
aI244
aI245
aI246
aI247
aI250
aI253
aI255
aI257
aI258
aI259
aI260
aI261
aI262
aI263
aI265
aI266
aI267
aI268
aI269
aI270
aI271
aI272
aI273
aI278
aI280
aI282
aI283
aI284
aI285
aI287
aI288
aI289
aI290
aI291
aI292
aI294
aI295
aI297
aI299
aI300
aI301
aI302
aI303
aI304
aI305
aI308
aI310
aI311
aI312
aI313
aI318
aI319
aI321
aI322
aI323
aI328
aI329
aI330
aI332
aI334
aI335
aI336
aI337
aI345
aI347
aI348
aI350
aI351
aI352
aI353
aI355
aI356
aI358
aI359
aI361
aI362
aI364
aI366
aI368
aI369
aI370
aI371
aI372
aI373
aI374
aI384
aI385
aI386
aI387
aI388
aI389
aI391
aI392
aI395
aI396
aI397
aI398
aI399
aI401
aI402
aI403
aI404
aI405
aI406
aI407
aI408
aI409
aI410
aI411
aI413
aI414
aI416
aI417
aI420
aI421
aI422
aI423
aI424
aI425
aI426
aI428
aI429
aI430
aI431
aI432
aI433
aI434
aI435
asS'/usr/lib/python2.6/site-packages/beaker/cache.py'
p16
(lp17
I9
aI10
aI11
aI13
aI14
aI15
aI18
aI19
aI20
aI21
aI26
aI27
aI28
aI29
aI30
aI33
aI34
aI36
aI52
aI53
aI55
aI56
aI58
aI59
aI60
aI64
aI65
aI66
aI70
aI71
aI73
aI74
aI77
aI94
aI95
aI96
aI109
aI111
aI113
aI116
aI118
aI122
aI124
aI136
aI145
aI150
aI155
aI158
aI161
aI164
aI167
aI171
aI172
aI180
aI181
aI182
aI184
aI189
aI195
aI245
asS'/afs/cern.ch/user/a/aalvarez/Source/fts3-rest/src/fts3rest/fts3rest/lib/http_exceptions.py'
p18
(lp19
I4
aI5
aI7
aI8
aI9
aI10
aI12
aI13
aI14
aI15
aI17
aI18
asS'/usr/lib/python2.6/site-packages/sqlalchemy/ext/__init__.py'
p20
(lp21
I1
asS'/usr/lib/python2.6/site-packages/sqlalchemy/ext/declarative.py'
p22
(lp23
I397
aI399
aI400
aI401
aI402
aI403
aI404
aI405
aI408
aI410
aI422
aI423
aI424
aI425
aI426
aI427
aI428
aI433
aI434
aI435
aI436
aI439
aI442
aI443
aI444
aI449
aI450
aI451
aI457
aI458
aI460
aI461
aI462
aI463
aI465
aI466
aI467
aI468
aI469
aI470
aI472
aI474
aI475
aI478
aI479
aI487
aI488
aI489
aI490
aI494
aI497
aI499
aI503
aI539
aI541
aI542
aI543
aI544
aI546
aI547
aI549
aI550
aI551
aI555
aI561
aI564
aI566
aI569
aI570
aI571
aI572
aI573
aI574
aI577
aI578
aI580
aI583
aI584
aI585
aI587
aI588
aI589
aI593
aI594
aI595
aI596
aI598
aI599
aI601
aI608
aI610
aI611
aI612
aI613
aI614
aI616
aI617
aI618
aI619
aI622
aI624
aI646
aI667
aI675
aI676
aI680
aI681
aI683
aI684
aI685
aI731
aI732
aI735
aI736
aI737
aI739
aI740
aI741
aI744
aI746
aI747
aI748
aI749
aI750
asS'/usr/lib/python2.6/site-packages/beaker/synchronization.py'
p24
(lp25
I7
aI9
aI10
aI11
aI13
aI14
aI19
aI20
aI22
aI23
aI24
aI25
aI29
aI30
aI32
aI33
aI36
aI43
aI44
aI46
aI47
aI52
aI55
aI62
aI65
aI69
aI70
aI74
aI81
aI85
aI86
aI88
aI90
aI92
aI94
aI95
aI98
aI99
aI102
aI103
aI105
aI110
aI117
aI119
aI133
aI149
aI163
aI165
aI181
aI183
aI186
aI189
aI192
aI196
aI208
aI209
aI224
aI226
aI228
aI235
aI249
aI263
aI266
aI269
aI277
aI278
aI280
aI292
aI312
aI330
aI366
asS'/usr/lib/python2.6/site-packages/requests/__init__.py'
p26
(lp27
I42
aI44
aI45
aI46
aI47
aI48
aI49
aI52
aI53
aI54
aI55
aI56
aI57
aI63
aI64
aI65
aI66
aI67
aI68
aI71
asS'/usr/lib/python2.6/site-packages/sqlalchemy/topological.py'
p28
(lp29
I32
aI43
aI66
aI67
aI68
aI69
aI97
aI98
aI103
aI104
aI105
aI106
aI123
aI141
aI142
aI143
aI144
aI145
aI146
aI160
aI161
aI163
aI164
aI165
aI166
aI168
aI169
aI176
aI177
aI178
aI180
aI181
aI182
aI183
aI185
aI186
aI187
aI210
aI211
aI212
aI213
aI214
aI215
aI216
asS'/usr/lib/python2.6/site-packages/backports/ssl_match_hostname/__init__.py'
p30
(lp31
I1
aI3
aI5
aI7
aI8
aI11
aI64
asS'/usr/lib/python2.6/site-packages/pygments/styles/__init__.py'
p32
(lp33
I10
aI12
aI13
aI17
aI18
aI19
aI20
aI21
aI22
aI23
aI24
aI25
aI26
aI27
aI28
aI29
aI30
aI31
aI32
aI33
aI37
aI38
aI39
aI40
aI50
aI51
aI55
aI56
aI61
asS'/usr/lib/python2.6/site-packages/requests/exceptions.py'
p34
(lp35
I9
aI12
aI14
aI17
aI18
aI19
aI22
aI23
aI26
aI27
aI30
aI31
aI34
aI35
aI38
aI39
aI42
aI43
aI46
aI47
aI50
aI51
asS'/usr/lib/python2.6/site-packages/sqlalchemy/orm/scoping.py'
p36
(lp37
I7
aI8
aI9
aI12
aI13
aI16
aI19
aI28
aI30
aI31
aI32
aI33
aI35
aI50
aI51
aI52
aI53
aI55
aI78
aI81
aI83
aI121
aI122
aI123
aI124
aI125
aI126
aI128
aI129
aI131
aI132
aI133
aI134
aI135
aI137
aI138
aI140
aI141
aI142
aI144
aI145
aI146
aI147
aI148
aI149
aI151
aI154
aI157
aI172
aI183
aI191
aI197
asS'/usr/lib/python2.6/site-packages/pygments/formatters/svg.py'
p38
(lp39
I10
aI12
aI13
aI15
aI18
aI27
aI29
aI75
aI76
aI77
aI78
aI80
aI98
aI139
asS'/usr/lib/python2.6/site-packages/urllib3/_collections.py'
p40
(lp41
I7
aI8
aI10
aI11
aI19
aI22
aI25
aI37
aI39
aI41
aI48
aI55
aI70
aI77
aI81
aI84
aI95
asS'/usr/lib/python2.6/site-packages/sqlalchemy/orm/util.py'
p42
(lp43
I7
aI8
aI9
aI10
aI11
aI14
aI16
aI18
aI20
aI21
aI23
aI24
aI27
aI28
aI29
aI30
aI31
aI32
aI33
aI35
aI39
aI40
aI43
aI44
aI46
aI53
aI59
aI61
aI77
aI80
aI83
aI125
aI181
aI194
aI196
aI197
aI199
aI200
aI201
aI204
aI207
aI212
aI217
aI221
aI229
aI242
aI244
aI246
aI249
aI251
aI253
aI259
aI260
aI261
aI262
aI263
aI266
aI268
aI275
aI287
aI288
aI289
aI290
aI291
aI292
aI293
aI296
aI297
aI299
aI302
aI312
aI315
aI324
aI350
aI354
aI362
aI364
aI365
aI367
aI369
aI370
aI372
aI377
aI378
aI381
aI382
aI383
aI387
aI388
aI390
aI392
aI396
aI397
aI401
aI402
aI403
aI404
aI405
aI406
aI407
aI409
aI413
aI414
aI416
aI418
aI421
aI424
aI441
aI451
aI453
aI477
aI488
aI489
aI490
aI491
aI492
aI494
aI495
aI498
aI500
aI502
aI518
aI525
aI529
aI530
aI532
aI533
aI535
aI541
aI542
aI543
aI545
aI549
aI555
aI556
aI557
aI560
aI566
aI567
aI568
aI570
aI571
aI573
aI575
aI576
aI577
aI583
aI587
aI588
aI590
aI591
aI592
aI593
aI594
aI595
aI596
aI597
aI598
aI599
aI601
aI606
aI614
aI617
aI620
aI636
aI637
aI638
asS'/usr/lib/python2.6/site-packages/pygments/lexers/agile.py'
p44
(lp45
I10
aI12
aI13
aI14
aI18
aI20
aI22
aI23
aI26
aI27
aI28
aI29
aI32
aI34
aI37
aI40
aI42
aI43
aI44
aI45
aI47
aI49
aI50
aI51
aI52
aI53
aI54
aI55
aI56
aI57
aI58
aI59
aI60
aI61
aI62
aI63
aI64
aI65
aI66
aI67
aI68
aI69
aI70
aI71
aI72
aI73
aI74
aI75
aI78
aI80
aI83
aI91
aI92
aI93
aI94
aI106
aI109
aI110
aI111
aI112
aI113
aI114
aI117
aI120
aI121
aI124
aI127
aI130
aI131
aI132
aI133
aI134
aI137
aI138
aI141
aI142
aI145
aI146
aI147
aI149
aI151
aI155
aI158
aI159
aI160
aI163
aI164
aI165
aI168
aI169
aI170
aI173
aI174
aI175
aI179
aI183
aI188
aI190
aI191
aI192
aI193
aI195
aI197
aI199
aI201
aI203
aI206
aI213
aI214
aI215
aI228
aI231
aI232
aI233
aI234
aI235
aI237
aI239
aI240
aI243
aI246
aI249
aI250
aI251
aI252
aI253
aI256
aI257
aI258
aI262
aI264
aI266
aI270
aI274
aI293
aI294
aI295
aI296
aI298
aI302
aI355
aI360
aI362
aI363
aI364
aI365
aI367
aI369
aI371
aI374
aI375
aI376
aI377
aI378
aI379
aI380
aI381
aI382
aI383
aI384
aI385
aI390
aI395
aI397
aI398
aI399
aI400
aI402
aI404
aI405
aI406
aI407
aI408
aI409
aI412
aI413
aI414
aI415
aI416
aI417
aI418
aI419
aI420
aI421
aI426
aI429
aI431
aI432
aI433
aI434
aI436
aI438
aI484
aI485
aI493
aI501
aI504
aI505
aI506
aI507
aI508
aI509
aI510
aI514
aI515
aI516
aI518
aI519
aI520
aI521
aI525
aI526
aI527
aI528
aI530
aI531
aI532
aI533
aI534
aI535
aI537
aI538
aI540
aI541
aI542
aI543
aI544
aI546
aI547
aI549
aI550
aI551
aI552
aI553
aI554
aI556
aI557
aI560
aI562
aI563
aI565
aI566
aI567
aI570
aI571
aI574
aI575
aI577
aI578
aI581
aI583
aI585
aI586
aI588
aI591
aI593
aI594
aI595
aI596
aI597
aI599
aI601
aI602
aI603
aI606
aI607
aI608
aI628
aI629
aI631
aI633
aI634
aI636
aI659
aI661
aI663
aI672
aI673
aI674
aI675
aI676
aI677
aI678
aI679
aI681
aI682
aI683
aI684
aI685
aI686
aI687
aI689
aI692
aI693
aI696
aI697
aI698
aI699
aI700
aI701
aI702
aI703
aI706
aI707
aI710
aI711
aI714
aI715
aI716
aI717
aI720
aI721
aI722
aI725
aI726
aI729
aI730
aI731
aI734
aI735
aI738
aI739
aI740
aI743
aI744
aI745
aI748
aI749
aI750
aI751
aI752
aI753
aI756
aI759
aI761
aI765
aI776
aI777
aI778
aI779
aI781
aI784
aI811
aI814
aI816
aI817
aI818
aI819
aI821
aI823
aI825
aI826
aI827
aI828
aI829
aI830
aI831
aI832
aI833
aI834
aI835
aI838
aI839
aI840
aI842
aI843
aI844
aI845
aI847
aI848
aI849
aI850
aI851
aI853
aI854
aI855
aI856
aI858
aI859
aI860
aI861
aI887
aI888
aI889
aI890
aI891
aI892
aI893
aI894
aI895
aI896
aI897
aI898
aI899
aI900
aI901
aI902
aI903
aI904
aI905
aI906
aI907
aI908
aI909
aI910
aI911
aI912
aI914
aI917
aI918
aI921
aI922
aI923
aI924
aI925
aI928
aI929
aI930
aI931
aI934
aI937
aI938
aI940
aI941
aI942
aI945
aI946
aI947
aI948
aI949
aI952
aI953
aI954
aI955
aI956
aI959
aI960
aI961
aI962
aI963
aI966
aI967
aI968
aI969
aI970
aI973
aI977
aI985
aI1006
aI1008
aI1009
aI1010
aI1011
aI1013
aI1015
aI1016
aI1018
aI1019
aI1020
aI1021
aI1023
aI1024
aI1025
aI1026
aI1028
aI1029
aI1031
aI1032
aI1033
aI1034
aI1036
aI1037
aI1039
aI1042
aI1043
aI1044
aI1048
aI1050
aI1054
aI1060
aI1064
aI1068
aI1069
aI1073
aI1074
aI1078
aI1091
aI1107
aI1111
aI1112
aI1113
aI1114
aI1115
aI1117
aI1119
aI1120
aI1122
aI1123
aI1124
aI1126
aI1129
aI1130
aI1132
aI1135
aI1137
aI1139
aI1141
aI1143
aI1145
aI1149
aI1151
aI1153
aI1156
aI1158
aI1161
aI1164
aI1165
aI1166
aI1167
aI1172
aI1178
aI1179
aI1180
aI1181
aI1182
aI1183
aI1185
aI1186
aI1188
aI1189
aI1190
aI1191
aI1193
aI1195
aI1196
aI1198
aI1199
aI1201
aI1203
aI1204
aI1205
aI1207
aI1208
aI1211
aI1212
aI1213
aI1214
aI1219
aI1224
aI1227
aI1234
aI1245
aI1246
aI1247
aI1248
aI1250
aI1252
aI1253
aI1254
aI1255
aI1258
aI1260
aI1261
aI1262
aI1264
aI1265
aI1266
aI1267
aI1268
aI1269
aI1270
aI1271
aI1272
aI1273
aI1275
aI1276
aI1277
aI1278
aI1279
aI1280
aI1283
aI1284
aI1285
aI1286
aI1287
aI1288
aI1289
aI1292
aI1293
aI1294
aI1295
aI1296
aI1299
aI1300
aI1303
aI1304
aI1307
aI1308
aI1311
aI1312
aI1313
aI1316
aI1317
aI1318
aI1321
aI1322
aI1323
aI1324
aI1327
aI1328
aI1329
aI1330
aI1333
aI1334
aI1335
aI1336
aI1339
aI1340
aI1344
aI1348
aI1353
aI1354
aI1355
aI1356
aI1357
aI1360
aI1361
aI1362
aI1363
aI1366
aI1367
aI1368
aI1369
aI1370
aI1371
aI1372
aI1373
aI1374
aI1375
aI1376
aI1377
aI1378
aI1379
aI1380
aI1381
aI1382
aI1383
aI1384
aI1385
aI1386
aI1387
aI1388
aI1389
aI1390
aI1391
aI1392
aI1393
aI1394
aI1395
aI1396
aI1397
aI1398
aI1399
aI1400
aI1401
aI1402
aI1403
aI1404
aI1405
aI1406
aI1407
aI1408
aI1409
aI1410
aI1411
aI1412
aI1413
aI1414
aI1415
aI1420
aI1422
aI1426
aI1429
aI1432
aI1433
aI1439
aI1440
aI1441
aI1444
aI1447
aI1450
aI1451
aI1452
aI1457
aI1458
aI1461
aI1462
aI1463
aI1467
aI1469
aI1472
aI1475
aI1478
asS'/afs/cern.ch/user/a/aalvarez/Source/fts3-rest/src/fts3rest/fts3rest/lib/api/introspect.py'
p46
(lp47
I2
aI3
aI4
aI5
aI6
aI7
aI8
aI9
aI10
aI11
aI12
aI15
aI16
aI19
aI39
aI56
aI79
aI97
aI110
aI119
aI135
aI143
aI147
aI171
aI184
aI200
aI217
aI235
aI249
aI264
aI318
aI330
aI387
asS'/usr/lib/python2.6/site-packages/weberror/util/serial_number_generator.py'
p48
(lp49
I9
aI11
aI12
aI16
aI18
aI20
aI22
aI25
aI26
aI27
aI29
aI33
aI39
aI42
aI43
aI44
aI45
aI47
aI48
aI49
aI51
aI53
aI73
aI74
aI75
aI118
aI134
aI152
aI154
asS'/usr/lib/python2.6/site-packages/urllib3/response.py'
p50
(lp51
I7
aI8
aI9
aI11
aI13
aI14
aI15
aI20
aI23
aI28
aI35
aI56
aI58
aI59
aI60
aI63
aI64
aI65
aI86
aI99
aI106
aI115
aI167
aI201
aI204
asS'/usr/lib/python2.6/site-packages/sqlalchemy/orm/identity.py'
p52
(lp53
I7
aI9
aI10
aI13
aI14
aI15
aI16
aI17
aI19
aI22
aI25
aI28
aI31
aI34
aI35
aI37
aI38
aI39
aI42
aI43
aI44
aI45
aI47
aI48
aI50
aI53
aI54
aI56
aI59
aI61
aI64
aI67
aI70
aI73
aI76
aI79
aI82
aI84
aI85
aI86
aI87
aI89
aI91
aI93
aI94
aI95
aI96
aI97
aI98
aI101
aI104
aI106
aI107
aI109
aI110
aI111
aI112
aI115
aI117
aI118
aI120
aI121
aI122
aI125
aI126
aI128
aI132
aI133
aI135
aI137
aI138
aI139
aI140
aI142
aI148
aI151
aI157
aI163
aI166
aI167
aI169
aI172
aI173
aI176
aI179
aI191
aI195
aI200
aI205
aI209
asS'/usr/lib/python2.6/site-packages/urllib3/exceptions.py'
p54
(lp55
I10
aI11
aI12
aI15
aI16
aI17
aI22
aI23
aI24
aI27
aI28
aI29
aI34
aI35
aI37
aI44
aI45
aI47
aI55
aI56
aI57
aI60
aI61
aI62
aI65
aI66
aI67
aI70
aI71
aI73
asS'/usr/lib/python2.6/site-packages/weberror/evalcontext.py'
p56
(lp57
I1
aI2
aI3
aI4
aI5
aI7
aI9
aI18
aI20
aI24
aI48
aI53
aI54
aI58
asS'/usr/lib/python2.6/site-packages/pylons/decorators/util.py'
p58
(lp59
I13
aI14
aI15
aI16
asS'/usr/lib/python2.6/site-packages/sqlalchemy/orm/__init__.py'
p60
(lp61
I13
aI15
aI16
aI21
aI30
aI39
aI48
aI49
aI50
aI51
aI52
aI53
aI54
aI55
aI56
aI99
aI103
aI140
aI142
aI181
aI421
aI423
aI424
aI425
aI426
aI427
aI468
aI508
aI581
aI589
aI591
aI601
aI749
aI751
aI795
aI832
aI841
aI855
aI865
aI875
aI892
aI902
aI911
aI921
aI941
aI950
aI960
asS'/usr/lib/python2.6/site-packages/sqlalchemy/orm/properties.py'
p62
(lp63
I12
aI14
aI15
aI16
aI17
aI18
aI21
aI22
aI27
aI28
aI31
aI32
aI34
aI53
aI54
aI55
aI56
aI57
aI58
aI59
aI60
aI65
aI66
aI68
aI71
aI73
aI74
aI77
aI78
aI79
aI80
aI81
aI82
aI85
aI86
aI87
aI95
aI98
aI99
aI101
aI102
aI104
aI105
aI107
aI108
aI109
aI110
aI111
aI113
aI115
aI116
aI118
aI119
aI121
aI124
aI126
aI127
aI129
aI134
aI136
aI139
aI141
aI142
aI144
aI153
aI156
aI161
aI165
aI169
aI183
aI190
aI191
aI198
aI200
aI207
aI210
aI213
aI214
aI216
aI219
aI222
aI254
aI256
aI258
aI265
aI268
aI271
aI305
aI308
aI310
aI311
aI313
aI315
aI320
aI332
aI335
aI338
aI342
aI345
aI348
aI349
aI350
aI351
aI352
aI353
aI354
aI355
aI356
aI357
aI358
aI359
aI360
aI361
aI362
aI363
aI365
aI366
aI367
aI368
aI369
aI370
aI371
aI372
aI373
aI374
aI375
aI376
aI377
aI378
aI379
aI380
aI381
aI383
aI384
aI385
aI386
aI387
aI388
aI390
aI392
aI393
aI394
aI395
aI396
aI397
aI400
aI402
aI404
aI407
aI409
aI412
aI414
aI416
aI420
aI423
aI428
aI429
aI431
aI433
aI434
aI435
aI436
aI437
aI438
aI439
aI442
aI443
aI444
aI445
aI446
aI447
aI450
aI457
aI461
aI468
aI471
aI474
aI477
aI481
aI483
aI494
aI547
aI553
aI558
aI568
aI593
aI604
aI609
aI621
aI627
aI628
aI630
aI631
aI633
aI634
aI635
aI637
aI638
aI640
aI644
aI646
aI647
aI649
aI650
aI651
aI652
aI653
aI654
aI655
aI656
aI661
aI673
aI674
aI678
aI679
aI683
aI684
aI685
aI697
aI698
aI699
aI700
aI702
aI706
aI710
aI711
aI712
aI713
aI714
aI715
aI716
aI717
aI718
aI720
aI721
aI722
aI724
aI725
aI726
aI728
aI731
aI732
aI734
aI737
aI738
aI739
aI744
aI745
aI746
aI747
aI748
aI750
aI753
aI754
aI756
aI757
aI758
aI766
aI768
aI775
aI776
aI780
aI785
aI786
aI790
aI791
aI797
aI798
aI805
aI806
aI807
aI808
aI814
aI816
aI828
aI829
aI830
aI831
aI834
aI835
aI836
aI840
aI859
aI861
aI880
aI882
aI883
aI886
aI887
aI889
aI908
aI910
aI911
aI914
aI917
aI919
aI925
aI936
aI937
aI938
aI939
aI941
aI948
aI954
aI955
aI956
aI969
aI974
aI975
aI977
aI979
aI980
aI982
aI986
aI988
aI993
aI998
aI1001
aI1002
aI1010
aI1011
aI1013
aI1014
aI1016
aI1017
aI1020
aI1021
aI1026
aI1027
aI1035
aI1036
aI1037
aI1040
aI1042
aI1045
aI1046
aI1047
aI1050
aI1051
aI1062
aI1064
aI1066
aI1073
aI1075
aI1076
aI1083
aI1084
aI1097
aI1098
aI1099
aI1104
aI1106
aI1107
aI1108
aI1112
aI1113
aI1114
aI1116
aI1130
aI1131
aI1132
aI1134
aI1135
aI1136
aI1138
aI1139
aI1141
aI1149
aI1151
aI1152
aI1153
aI1154
aI1155
aI1157
aI1158
aI1159
aI1161
aI1163
aI1164
aI1165
aI1169
aI1170
aI1171
aI1176
aI1178
aI1179
aI1180
aI1182
aI1183
aI1184
aI1186
aI1188
aI1194
aI1195
aI1196
aI1197
aI1198
asS'/usr/lib/python2.6/site-packages/nose/plugins/manager.py'
p64
(lp65
I70
aI71
aI75
aI76
aI77
aI78
aI81
aI87
aI88
aI89
aI92
aI96
aI98
aI99
aI101
aI102
aI103
aI106
aI112
aI115
aI116
aI117
aI118
aI119
aI120
aI121
aI122
aI127
aI144
aI145
aI146
aI155
aI156
aI162
aI224
aI225
aI226
aI227
aI228
aI229
aI286
aI287
aI308
aI309
aI316
aI317
aI322
aI323
aI327
aI328
aI332
asS'/usr/lib/python2.6/site-packages/mako/ext/turbogears.py'
p66
(lp67
I9
aI10
aI11
aI15
aI16
aI17
aI18
aI19
aI21
aI23
aI26
aI27
aI28
asS'/usr/lib/python2.6/site-packages/pygments/lexers/_mapping.py'
p68
(lp69
I14
aI16
aI17
aI18
aI19
aI20
aI21
aI22
aI23
aI24
aI25
aI26
aI27
aI28
aI29
aI30
aI31
aI32
aI33
aI34
aI35
aI36
aI37
aI38
aI39
aI40
aI41
aI42
aI43
aI44
aI45
aI46
aI47
aI48
aI49
aI50
aI51
aI52
aI53
aI54
aI55
aI56
aI57
aI58
aI59
aI60
aI61
aI62
aI63
aI64
aI65
aI66
aI67
aI68
aI69
aI70
aI71
aI72
aI73
aI74
aI75
aI76
aI77
aI78
aI79
aI80
aI81
aI82
aI83
aI84
aI85
aI86
aI87
aI88
aI89
aI90
aI91
aI92
aI93
aI94
aI95
aI96
aI97
aI98
aI99
aI100
aI101
aI102
aI103
aI104
aI105
aI106
aI107
aI108
aI109
aI110
aI111
aI112
aI113
aI114
aI115
aI116
aI117
aI118
aI119
aI120
aI121
aI122
aI123
aI124
aI125
aI126
aI127
aI128
aI129
aI130
aI131
aI132
aI133
aI134
aI135
aI136
aI137
aI138
aI139
aI140
aI141
aI142
aI143
aI144
aI145
aI146
aI147
aI148
aI149
aI150
aI151
aI152
aI153
aI154
aI155
aI156
aI157
aI158
aI159
aI160
aI161
aI162
aI163
aI164
aI165
aI166
aI167
aI168
aI169
aI170
aI171
aI172
aI173
aI174
aI175
aI176
aI177
aI180
asS'/usr/lib/python2.6/site-packages/pygments/formatters/img.py'
p70
(lp71
I10
aI12
aI13
aI15
aI16
aI19
aI20
aI22
aI23
aI25
aI26
aI27
aI28
aI30
aI31
aI35
aI36
aI37
aI38
aI39
aI43
aI44
aI47
aI48
aI51
aI52
aI55
aI58
aI60
aI74
aI83
aI104
aI119
aI146
aI152
aI166
aI253
aI256
aI257
aI258
aI260
aI262
aI264
aI309
aI313
aI319
aI325
aI331
aI337
aI343
aI349
aI359
aI365
aI372
aI384
aI390
aI423
aI433
aI450
aI475
aI482
aI484
aI485
aI486
aI487
aI490
aI497
aI499
aI500
aI501
aI502
aI505
aI512
aI514
aI515
aI516
aI517
asS'/afs/cern.ch/user/a/aalvarez/Source/fts3-rest/src/fts3rest/fts3rest/tests/functional/test_job_submission.py'
p72
(lp73
I1
aI2
aI3
aI4
aI5
aI6
aI7
aI9
aI10
aI12
aI13
aI14
aI15
aI16
aI17
aI18
aI19
aI20
aI21
aI22
aI23
aI24
aI25
aI26
aI27
aI28
aI29
aI30
aI31
aI32
aI33
aI34
aI35
aI36
aI37
aI38
aI39
aI40
aI41
aI42
aI43
aI44
aI45
aI46
aI47
aI48
aI49
aI51
aI52
aI53
aI54
aI55
aI56
aI59
aI60
aI61
aI62
aI63
aI64
aI65
aI66
aI67
aI68
aI69
aI70
aI71
aI72
aI74
aI75
aI76
aI77
aI79
aI80
aI81
aI82
aI83
aI84
aI85
aI86
aI87
aI90
aI91
aI93
aI94
aI95
aI96
aI97
aI98
aI99
aI100
aI102
aI105
aI106
aI107
aI110
aI111
aI113
aI114
aI116
aI118
aI119
aI122
aI123
aI124
aI125
aI126
aI127
aI128
aI129
aI130
aI131
aI132
aI133
aI134
aI135
aI137
aI138
aI139
aI140
aI142
aI143
aI144
aI145
aI146
aI147
aI148
aI149
aI150
aI152
aI153
aI154
aI155
aI156
aI157
aI158
aI159
aI160
aI161
aI162
aI163
aI164
aI165
aI167
aI168
aI169
aI170
aI171
aI172
aI173
aI174
aI175
aI176
aI177
aI178
aI179
aI180
aI181
aI182
aI184
aI185
aI186
aI187
aI188
aI189
aI190
aI191
aI192
aI193
aI194
aI195
aI197
aI198
aI199
aI200
aI201
aI202
aI203
aI204
aI206
aI207
aI208
aI209
aI210
aI211
aI212
aI213
aI214
aI215
aI216
aI217
aI219
aI220
aI221
aI223
aI224
aI225
aI227
aI228
aI229
aI230
aI231
aI232
aI233
aI234
aI236
aI237
aI238
aI239
aI240
aI241
aI242
aI243
aI244
aI245
aI246
aI247
aI248
aI249
aI250
aI251
aI252
aI253
aI254
aI255
aI257
aI258
aI259
aI260
aI261
aI262
aI263
aI264
aI265
aI266
aI267
aI268
aI269
aI270
aI271
aI272
aI273
aI274
aI275
aI276
aI277
aI278
aI279
aI280
aI281
aI282
aI283
aI284
aI285
aI286
aI287
aI288
aI289
aI290
aI291
aI292
aI293
aI295
aI296
aI297
aI298
aI299
aI300
aI301
aI302
aI303
aI304
aI305
aI306
aI307
aI308
aI309
aI310
aI311
aI312
aI313
aI314
aI315
aI316
aI317
aI318
aI319
aI320
aI321
aI322
aI323
aI324
aI325
aI327
aI329
aI330
aI331
aI332
aI333
aI334
aI335
aI336
aI337
aI338
aI339
aI340
aI341
aI342
aI343
aI344
aI345
aI346
aI347
aI348
aI349
aI350
aI351
aI352
aI354
aI355
aI356
aI357
aI358
aI359
aI360
aI363
aI364
aI365
aI366
aI367
aI368
aI369
aI370
aI371
aI372
aI373
aI374
aI375
aI376
aI378
aI379
aI380
aI381
aI383
aI384
aI385
aI386
aI387
aI388
aI389
aI390
aI392
aI393
aI394
aI396
aI397
aI398
aI399
aI400
aI401
aI402
aI403
aI404
aI405
aI406
aI407
aI408
aI409
aI410
aI411
aI412
aI413
aI414
aI415
aI416
aI417
aI418
aI420
aI421
aI422
aI423
aI426
aI427
aI428
aI429
aI430
aI431
aI432
aI433
aI434
aI435
aI436
aI437
aI438
aI439
aI441
aI442
aI443
aI444
aI445
aI446
aI447
aI448
aI449
aI450
aI451
aI452
aI453
aI455
aI457
aI458
aI459
aI460
aI461
aI462
aI463
aI464
aI465
aI466
aI467
aI468
aI469
aI470
aI473
aI474
aI475
aI476
aI477
aI478
aI479
aI480
aI481
aI482
aI483
aI485
aI487
aI488
aI489
aI490
aI491
aI493
aI494
aI496
aI497
aI498
aI499
aI500
aI501
aI502
aI505
aI506
aI508
aI509
aI510
aI511
aI512
aI515
aI517
aI518
aI519
aI521
aI523
aI524
aI527
aI528
aI530
aI531
aI532
aI538
aI539
aI541
aI542
aI543
aI544
aI545
aI548
aI550
aI551
aI552
aI554
aI556
aI557
aI560
aI561
aI563
aI564
aI565
asS'/usr/lib/python2.6/site-packages/pygments/__init__.py'
p74
(lp75
I26
aI28
aI29
aI31
aI34
aI36
aI39
aI53
aI77
aI88
asS'/usr/lib/python2.6/site-packages/tempita/__init__.py'
p76
(lp77
I91
aI92
aI93
aI111
aI112
aI113
aI114
aI115
aI116
aI117
aI614
aI615
aI616
aI617
aI618
aI619
aI620
aI621
aI624
aI627
aI628
aI629
aI630
aI631
aI633
aI634
aI635
aI636
aI637
aI640
aI641
aI642
aI643
aI644
aI645
aI663
aI664
aI665
aI667
aI668
aI669
aI670
aI671
aI674
aI675
aI678
aI679
aI680
aI681
aI682
aI683
aI684
aI686
aI687
aI688
aI690
aI692
aI693
aI694
aI695
aI698
aI699
aI700
aI701
aI706
aI707
aI759
aI760
aI761
aI762
aI763
aI764
aI767
aI768
aI769
aI770
aI771
aI772
aI773
aI774
aI775
aI778
aI780
aI784
aI785
aI791
aI792
aI793
aI794
aI798
aI802
aI806
aI807
aI808
aI810
aI812
aI814
aI816
aI819
aI820
aI821
aI822
aI823
aI827
aI828
aI829
aI830
aI831
aI834
aI835
aI836
aI838
aI839
aI840
aI842
aI843
aI846
aI847
aI851
aI852
aI853
aI854
aI855
aI856
aI857
aI860
aI861
aI862
aI863
aI864
aI865
aI866
aI867
aI868
aI869
aI873
aI874
aI878
aI879
aI880
aI881
aI882
aI883
aI887
aI888
aI889
aI890
aI891
asS'/usr/lib/python2.6/site-packages/weberror/util/__init__.py'
p78
(lp79
I1
asS'/usr/lib/python2.6/site-packages/paste/urlparser.py'
p80
(lp81
I5
aI7
aI8
aI9
aI10
aI11
aI12
aI15
aI16
aI17
aI18
aI19
aI20
aI22
aI23
aI25
aI27
aI77
aI79
aI82
aI84
aI88
aI89
aI90
aI91
aI140
aI188
aI214
aI221
aI236
aI271
aI289
aI300
aI301
aI305
aI306
aI308
aI328
aI334
aI341
aI349
aI351
aI354
aI356
aI364
aI398
aI417
aI419
aI425
aI428
aI429
aI434
aI436
aI438
aI476
aI479
aI494
aI503
aI508
aI511
aI523
aI525
aI540
aI546
aI585
aI594
aI606
aI607
asS'/usr/lib/python2.6/site-packages/sqlalchemy/orm/state.py'
p82
(lp83
I1
aI2
aI3
aI4
aI5
aI6
aI8
aI9
aI11
aI12
aI13
aI14
aI15
aI16
aI17
aI18
aI19
aI21
aI22
aI23
aI24
aI25
aI26
aI27
aI28
aI29
aI30
aI32
aI33
aI34
aI36
aI37
aI38
aI39
aI41
aI42
aI43
aI44
aI45
aI47
aI48
aI50
aI52
aI53
aI54
aI56
aI58
aI60
aI62
aI66
aI67
aI68
aI70
aI71
aI76
aI81
aI82
aI88
aI89
aI91
aI92
aI94
aI99
aI108
aI109
aI110
aI111
aI112
aI113
aI114
aI116
aI118
aI119
aI121
aI142
aI166
aI169
aI173
aI179
aI180
aI181
aI182
aI183
aI184
aI185
aI187
aI188
aI189
aI190
aI192
aI196
aI198
aI210
aI211
aI213
aI214
aI215
aI216
aI224
aI225
aI227
aI228
aI230
aI231
aI232
aI233
aI235
aI236
aI237
aI238
aI239
aI240
aI241
aI244
aI247
aI248
aI250
aI251
aI253
aI256
aI257
aI259
aI260
aI267
aI268
aI270
aI271
aI273
aI274
aI275
aI276
aI278
aI279
aI280
aI282
aI292
aI293
aI294
aI297
aI299
aI301
aI302
aI303
aI304
aI306
aI322
aI323
aI326
aI327
aI329
aI331
aI335
aI336
aI338
aI339
aI341
aI342
aI346
aI358
aI361
aI363
aI374
aI389
aI393
aI414
aI435
aI442
aI443
aI447
aI452
asS'/afs/cern.ch/user/a/aalvarez/Source/fts3-rest/src/fts3rest/fts3rest/lib/api/decorators.py'
p84
(lp85
I2
aI3
aI5
aI6
aI8
aI9
aI10
aI11
aI13
aI16
aI27
aI28
aI29
aI30
aI31
aI32
aI35
aI45
aI46
aI47
aI48
aI51
aI60
aI61
aI62
aI63
aI64
aI65
aI68
aI79
aI80
aI81
aI82
aI83
aI85
aI86
aI87
asS'/usr/lib/python2.6/site-packages/pygments/filter.py'
p86
(lp87
I10
aI13
aI27
aI43
aI47
aI49
aI52
aI56
aI62
aI63
aI65
aI71
asS'/usr/lib/python2.6/site-packages/nose/proxy.py'
p88
(lp89
I30
aI32
aI43
aI45
aI46
aI47
aI57
aI58
aI59
aI60
aI62
aI64
aI78
aI80
aI81
aI82
aI83
aI92
aI93
aI94
aI96
aI97
aI100
aI101
aI102
aI106
aI107
aI108
aI112
aI113
aI114
aI115
aI117
aI118
aI119
aI120
aI121
aI122
aI123
aI126
aI127
aI128
aI129
aI131
aI132
aI133
aI134
aI135
aI136
aI137
aI140
aI141
aI142
aI145
aI146
aI147
aI153
aI154
aI155
asS'/usr/lib/python2.6/site-packages/urllib3/__init__.py'
p90
(lp91
I9
aI11
aI12
aI13
aI16
aI22
aI23
aI24
aI25
aI26
aI30
aI31
aI32
aI33
aI34
aI35
aI38
aI40
aI58
asS'/usr/lib/python2.6/site-packages/pygments/formatters/latex.py'
p92
(lp93
I10
aI12
aI13
aI14
aI17
aI20
aI44
aI99
aI102
aI114
aI180
aI181
aI182
aI183
aI185
aI199
aI242
aI254
asS'/afs/cern.ch/user/a/aalvarez/Source/fts3-rest/src/fts3rest/fts3rest/lib/middleware/__init__.py'
p94
(lp95
I1
asS'/usr/lib/python2.6/site-packages/webtest/lint.py'
p96
(lp97
I110
aI112
aI113
aI114
aI115
aI117
aI118
aI120
aI123
aI125
aI137
aI138
aI139
aI140
aI142
aI146
aI148
aI149
aI151
aI152
aI153
aI154
aI155
aI159
aI160
aI161
aI162
aI164
aI165
aI167
aI168
aI170
aI171
aI174
aI176
aI178
aI180
aI182
aI183
aI185
aI186
aI187
aI188
aI189
aI191
aI196
aI204
aI211
aI214
aI216
aI217
aI219
aI223
aI226
aI230
aI233
aI235
aI236
aI238
aI242
aI244
aI247
aI251
aI253
aI254
aI255
aI256
aI257
aI259
aI260
aI262
aI263
aI265
aI266
aI267
aI269
aI270
aI272
aI273
aI274
aI277
aI278
aI281
aI284
aI285
aI289
aI290
aI291
aI292
aI293
aI296
aI297
aI301
aI308
aI309
aI311
aI312
aI316
aI318
aI321
aI322
aI325
aI326
aI331
aI334
aI335
aI337
aI338
aI341
aI342
aI345
aI349
aI350
aI351
aI355
aI356
aI357
aI361
aI362
aI365
aI366
aI368
aI369
aI370
aI376
aI377
aI380
aI381
aI382
aI385
aI386
aI387
aI391
aI392
aI394
aI395
aI397
aI401
aI402
aI405
aI406
aI407
aI408
aI409
aI410
aI413
aI416
aI417
aI421
aI425
aI429
aI434
aI436
asS'/usr/lib/python2.6/site-packages/sqlalchemy/sql/util.py'
p98
(lp99
I10
aI11
aI12
aI13
aI15
aI16
aI17
aI18
aI20
aI21
aI22
aI53
aI54
aI56
aI57
aI59
aI62
aI65
aI68
aI73
aI75
aI76
aI81
aI82
aI83
aI84
aI85
aI98
aI99
aI100
aI101
aI102
aI109
aI110
aI111
aI112
aI113
aI114
aI115
aI122
aI126
aI130
aI137
aI138
aI157
aI161
aI164
aI165
aI170
aI175
aI178
aI179
aI180
aI191
aI205
aI246
aI247
aI248
aI249
aI251
aI252
aI253
aI257
aI260
aI262
aI263
aI264
aI265
aI266
aI267
aI268
aI269
aI270
aI272
aI273
aI274
aI275
aI276
aI278
aI298
aI300
aI302
aI303
aI304
aI305
aI306
aI307
aI308
aI309
aI315
aI319
aI331
aI336
aI339
aI340
aI341
aI342
aI345
aI346
aI347
aI348
aI349
aI350
aI356
aI357
aI358
aI359
aI360
aI361
aI362
aI363
aI464
aI465
aI466
aI467
aI468
aI471
aI473
aI478
aI481
aI482
aI483
aI485
aI488
aI490
aI491
aI493
aI505
aI506
aI508
aI529
aI530
aI536
asS'/afs/cern.ch/user/a/aalvarez/Source/fts3-rest/src/fts3rest/fts3rest/lib/api/submit_schema.py'
p100
(lp101
I1
aI2
aI3
aI6
aI7
aI8
aI9
aI10
aI11
aI12
aI13
aI14
aI15
aI16
aI17
aI22
aI23
aI24
aI25
aI26
aI27
aI29
aI30
aI31
aI33
aI34
aI35
aI37
aI38
aI39
aI41
aI42
aI43
aI44
aI46
aI47
aI49
aI50
aI52
aI53
aI55
aI56
aI57
aI59
aI63
aI64
aI65
aI66
aI67
aI68
aI69
aI70
aI71
asS'/usr/lib/python2.6/site-packages/beaker/__init__.py'
p102
(lp103
I1
asS'/usr/lib/python2.6/site-packages/paste/config.py'
p104
(lp105
I56
aI70
aI71
aI72
aI73
aI74
asS'/afs/cern.ch/user/a/aalvarez/Source/fts3-rest/src/fts3rest/fts3rest/tests/unit/test_authorization.py'
p106
(lp107
I1
aI2
aI3
aI6
aI11
aI12
aI13
aI14
aI15
aI20
aI21
aI24
aI25
aI26
aI27
aI28
aI29
aI31
aI33
aI34
aI37
aI42
aI43
aI46
aI52
aI53
aI57
aI58
aI59
aI63
aI64
aI65
aI67
aI71
aI72
aI74
aI75
aI76
aI78
aI79
aI80
aI84
aI88
aI90
aI92
aI96
aI98
asS'/usr/lib/python2.6/site-packages/beaker/session.py'
p108
(lp109
I1
aI2
aI3
aI4
aI5
aI6
aI7
aI8
aI10
aI11
aI30
aI31
aI34
aI35
aI37
aI38
aI39
aI41
aI43
aI45
aI46
aI47
aI51
aI59
aI64
aI65
aI66
aI67
aI68
aI69
aI70
aI123
aI152
aI154
aI156
aI170
aI177
aI185
aI235
aI267
aI276
aI287
aI298
aI320
aI321
aI322
aI323
aI368
aI370
aI372
aI374
aI376
aI389
aI404
aI410
aI419
aI424
aI465
aI471
aI477
aI485
aI486
aI487
aI488
aI489
aI490
aI492
aI506
aI509
aI512
aI515
aI518
aI521
aI524
aI527
aI531
aI534
aI541
aI544
aI548
aI565
aI568
aI569
asS'/usr/lib/python2.6/site-packages/weberror/collector.py'
p110
(lp111
I21
aI23
aI24
aI25
aI26
aI27
aI30
aI31
aI33
aI34
aI36
aI38
aI215
aI217
aI219
aI220
aI222
aI228
aI243
aI262
aI326
aI329
aI377
aI394
aI396
aI400
aI402
aI406
aI416
aI420
aI422
aI425
aI430
aI432
aI435
aI437
aI439
aI441
aI447
aI451
aI452
aI453
aI454
aI455
aI456
aI458
aI460
aI465
aI469
aI471
aI473
aI477
aI480
aI483
aI486
aI488
aI490
aI492
aI495
aI497
aI499
aI515
aI523
aI525
aI528
aI530
asS'/usr/lib/python2.6/site-packages/paste/recursive.py'
p112
(lp113
I24
aI26
aI27
aI29
aI30
aI32
aI33
aI37
aI49
aI59
aI61
aI64
aI86
aI166
aI170
aI171
aI172
aI173
aI237
aI239
aI245
aI270
aI273
aI279
aI296
aI298
aI306
aI312
aI314
aI332
aI334
aI340
aI345
aI351
aI354
aI359
aI362
aI366
aI368
aI380
aI382
aI389
aI395
aI398
aI401
asS'/afs/cern.ch/user/a/aalvarez/Source/fts3-rest/src/fts3rest/fts3rest/tests/unit/test_json_schema.py'
p114
(lp115
I1
aI2
aI3
aI6
aI10
aI12
aI13
aI14
aI15
aI16
aI17
aI18
aI19
aI22
aI23
aI24
aI25
aI26
aI27
aI28
aI29
aI30
aI31
aI34
aI37
aI41
aI49
aI53
aI54
aI57
aI61
aI62
aI65
aI69
aI70
aI73
aI77
aI78
asS'/usr/lib/python2.6/site-packages/requests/adapters.py'
p116
(lp117
I9
aI11
aI13
aI14
aI15
aI16
aI17
aI18
aI20
aI21
aI22
aI23
aI24
aI25
aI26
aI28
aI29
aI32
aI33
aI35
aI38
aI41
aI45
aI46
aI47
aI55
aI58
aI86
aI116
aI129
aI137
aI152
asS'/usr/lib/python2.6/site-packages/six.py'
p118
(lp119
I1
aI23
aI24
aI25
aI27
aI28
aI32
aI33
aI35
aI44
aI45
aI46
aI47
aI48
aI50
aI55
aI56
aI57
aI58
aI59
aI65
aI66
aI69
aI71
aI74
aI76
aI77
aI80
aI82
aI83
aI85
aI86
aI87
aI89
aI90
aI93
aI95
aI96
aI97
aI102
aI104
aI108
aI110
aI111
aI112
aI123
aI124
aI125
aI126
aI128
aI129
aI130
aI134
aI135
aI139
aI140
aI141
aI142
aI143
aI144
aI145
aI146
aI147
aI148
aI149
aI150
aI151
aI153
aI154
aI155
aI156
aI157
aI158
aI159
aI160
aI161
aI162
aI163
aI164
aI165
aI166
aI167
aI168
aI169
aI170
aI171
aI172
aI173
aI174
aI175
aI176
aI177
aI178
aI179
aI180
aI181
aI182
aI183
aI184
aI185
aI186
aI187
aI188
aI189
aI190
aI191
aI192
aI194
aI195
aI196
aI198
aI202
aI203
aI207
aI208
aI209
aI210
aI211
aI212
aI213
aI214
aI215
aI216
aI217
aI218
aI219
aI220
aI222
aI223
aI224
aI226
aI227
aI230
aI231
aI235
aI236
aI237
aI239
aI240
aI241
aI243
aI244
aI247
aI248
aI252
aI253
aI254
aI255
aI256
aI257
aI258
aI259
aI260
aI261
aI262
aI263
aI264
aI265
aI266
aI267
aI268
aI269
aI270
aI271
aI272
aI273
aI274
aI275
aI276
aI277
aI278
aI279
aI280
aI281
aI282
aI283
aI285
aI286
aI287
aI289
aI290
aI293
aI294
aI298
aI299
aI300
aI301
aI303
aI304
aI305
aI307
aI308
aI311
aI312
aI316
aI318
aI319
aI320
aI322
aI323
aI326
aI327
aI328
aI329
aI330
aI331
aI332
aI335
aI338
aI343
aI354
aI368
aI369
aI371
aI372
aI373
aI374
aI376
aI377
aI378
aI379
aI382
aI383
aI387
aI390
aI391
aI397
aI405
aI408
aI411
aI413
aI416
aI417
aI418
aI421
aI422
aI423
aI424
aI425
aI426
aI429
aI433
aI437
aI441
aI446
aI465
aI467
aI469
aI470
aI471
aI473
aI475
aI477
aI478
aI479
aI480
aI483
aI498
aI500
aI501
aI502
aI503
aI504
aI505
aI508
aI511
aI513
aI516
aI561
aI564
aI568
asS'/usr/lib/python2.6/site-packages/pylons/middleware.py'
p120
(lp121
I1
aI2
aI3
aI4
aI5
aI7
aI8
aI9
aI10
aI11
aI12
aI13
aI14
aI16
aI17
aI18
aI19
aI21
aI22
aI23
aI25
aI27
aI31
aI89
aI91
aI97
aI98
aI103
aI111
aI113
aI126
aI131
aI142
aI143
aI146
aI166
aI180
aI181
aI182
aI199
aI219
aI234
aI261
asS'/usr/lib/python2.6/site-packages/jsonschema/exceptions.py'
p122
(lp123
I1
aI2
aI3
aI4
aI6
aI7
aI10
aI11
aI13
aI16
aI18
aI19
aI21
aI22
aI23
aI24
aI25
aI26
aI27
aI28
aI29
aI31
aI34
aI37
aI64
aI67
aI71
aI72
aI73
aI74
aI76
aI85
aI86
aI89
aI90
aI93
aI94
aI97
aI98
aI103
aI106
aI118
aI123
aI124
aI129
aI132
aI135
aI139
aI143
aI145
aI147
aI159
aI167
aI182
aI185
aI193
aI201
aI204
aI215
aI216
aI219
aI222
asS'/usr/lib/python2.6/site-packages/paste/deploy/util/fixtypeerror.py'
p124
(lp125
I56
aI57
aI61
asS'/usr/lib/python2.6/site-packages/jsonschema/validators.py'
p126
(lp127
I1
aI3
aI4
aI5
aI7
aI8
aI12
aI13
aI17
aI18
aI21
aI23
aI24
aI27
aI39
aI40
aI41
aI42
aI43
aI44
aI47
aI48
aI49
aI50
aI51
aI52
aI55
aI56
aI57
aI58
aI61
aI63
aI64
aI66
aI67
aI69
aI70
aI71
aI73
aI75
aI78
aI79
aI80
aI82
aI83
aI84
aI85
aI87
aI89
aI90
aI91
aI92
aI94
aI95
aI97
aI98
aI99
aI100
aI101
aI103
aI104
aI105
aI107
aI108
aI109
aI110
aI111
aI112
aI113
aI115
aI116
aI117
aI119
aI120
aI122
aI125
aI126
aI127
aI128
aI130
aI132
aI134
aI138
aI139
aI141
aI142
aI143
aI144
aI146
aI149
aI160
aI161
aI162
aI163
aI164
aI165
aI166
aI167
aI168
aI169
aI170
aI171
aI172
aI173
aI174
aI175
aI176
aI177
aI178
aI179
aI180
aI181
aI182
aI183
aI184
aI186
aI189
aI190
aI191
aI192
aI193
aI194
aI195
aI196
aI197
aI198
aI199
aI200
aI201
aI202
aI203
aI204
aI205
aI206
aI207
aI208
aI209
aI210
aI211
aI212
aI213
aI214
aI215
aI216
aI217
aI219
aI223
aI235
aI238
aI240
aI241
aI243
aI244
aI245
aI247
aI248
aI249
aI251
aI252
aI254
aI264
aI266
aI268
aI269
aI270
aI271
aI273
aI275
aI285
aI286
aI287
aI290
aI291
aI298
aI299
aI300
aI301
aI303
aI305
aI314
aI315
aI317
aI318
aI320
aI326
aI327
aI333
aI335
aI382
aI383
aI384
aI385
aI388
aI429
aI430
aI431
aI432
asS'/afs/cern.ch/user/a/aalvarez/Source/fts3-rest/src/fts3rest/fts3rest/controllers/delegation.py'
p128
(lp129
I1
aI2
aI3
aI4
aI5
aI6
aI7
aI8
aI9
aI10
aI11
aI12
aI13
aI15
aI18
aI19
aI22
aI26
aI29
aI33
aI34
aI35
aI36
aI37
aI40
aI47
aI48
aI49
aI50
aI51
aI52
aI53
aI54
aI56
aI59
aI63
aI64
aI65
aI66
aI67
aI68
aI69
aI70
aI71
aI74
aI85
aI86
aI88
aI89
aI90
aI91
aI92
aI93
aI94
aI95
aI97
aI98
aI99
aI101
aI102
aI103
aI105
aI106
aI107
aI108
aI109
aI110
aI111
aI112
aI113
aI115
aI118
aI125
aI126
aI127
aI128
aI129
aI130
aI133
aI135
aI136
aI138
aI139
aI141
aI143
aI144
aI146
aI147
aI148
aI150
aI153
aI154
aI155
aI156
aI157
aI158
aI160
aI162
aI163
aI165
aI166
aI167
aI168
aI169
aI170
aI171
aI172
aI173
aI174
aI175
aI176
aI177
aI178
aI179
aI180
aI185
aI187
aI188
aI190
aI191
aI193
aI194
aI195
aI196
aI197
aI198
aI199
aI200
aI201
aI202
aI203
aI204
aI205
aI206
aI207
aI208
aI209
aI210
aI211
aI212
aI213
aI214
aI215
aI222
aI224
aI225
aI227
aI228
aI229
aI230
aI231
aI232
aI233
aI234
aI235
aI236
aI237
aI238
aI239
aI240
aI241
aI242
aI243
aI244
aI245
aI246
aI247
aI248
aI249
aI251
aI252
aI254
aI255
aI256
aI257
aI258
aI259
aI260
aI261
aI266
aI268
aI269
aI271
aI272
aI273
aI274
aI275
aI276
aI277
aI279
aI280
aI282
aI283
aI285
aI286
aI287
aI288
aI289
aI290
aI292
aI293
aI294
aI295
aI296
aI297
aI298
aI299
aI300
aI301
aI302
aI304
aI305
asS'/usr/lib/python2.6/site-packages/beaker/middleware.py'
p130
(lp131
I1
aI3
aI4
aI5
aI6
aI11
aI12
aI13
aI17
aI18
aI20
aI67
aI76
aI77
aI79
aI105
aI108
aI109
aI110
aI113
aI114
aI115
aI116
aI117
aI119
aI125
aI129
aI132
aI133
aI134
aI136
aI137
aI138
aI139
aI140
aI141
aI142
aI144
aI145
aI151
aI152
aI154
aI158
aI164
asS'/usr/lib/python2.6/site-packages/webob/exc.py'
p132
(lp133
I92
aI94
aI99
aI102
aI103
aI104
aI105
aI106
aI107
aI178
aI179
aI180
aI181
aI182
aI184
aI185
aI186
aI189
aI194
aI195
aI196
aI197
aI199
aI202
aI203
aI204
aI210
aI211
aI214
aI215
aI216
aI217
aI218
aI226
aI227
aI228
aI229
aI230
aI235
aI236
aI238
aI239
aI240
aI243
aI246
aI247
aI251
aI256
aI257
asS'/afs/cern.ch/user/a/aalvarez/Source/fts3-rest/src/fts3rest/fts3rest/lib/helpers/fts3_config.py'
p134
(lp135
I1
aI2
aI3
aI4
aI7
aI16
aI17
aI19
aI20
aI22
aI23
aI24
aI25
aI27
aI30
aI32
aI35
aI36
aI38
aI45
aI46
aI47
aI48
aI50
aI51
aI53
aI54
aI55
aI56
aI57
aI58
aI59
aI60
aI62
aI64
asS'/usr/lib/python2.6/site-packages/paste/errordocument.py'
p136
(lp137
I10
aI12
aI13
aI14
aI15
aI16
aI18
aI62
aI63
aI69
aI86
aI138
aI140
aI154
aI197
aI220
aI221
aI222
aI223
aI224
aI232
aI244
aI247
aI248
aI279
asS'/usr/lib/python2.6/site-packages/beaker/converters.py'
p138
(lp139
I3
aI15
asS'/usr/lib/python2.6/site-packages/pylons/util.py'
p140
(lp141
I125
aI126
asS'/usr/lib/python2.6/site-packages/sqlalchemy/util.py'
p142
(lp143
I65
aI68
aI69
aI135
aI136
aI137
aI138
aI140
aI151
aI152
aI153
aI154
aI156
aI183
aI185
aI186
aI188
aI204
aI211
aI213
aI216
aI217
aI218
aI219
aI220
aI221
aI222
aI223
aI224
aI225
aI232
aI233
aI234
aI235
aI237
aI238
aI240
aI241
aI242
aI243
aI244
aI245
aI255
aI256
aI257
aI258
aI259
aI260
aI287
aI288
aI289
aI290
aI294
aI295
aI296
aI297
aI298
aI299
aI300
aI301
aI302
aI303
aI304
aI305
aI309
aI343
aI344
aI345
aI346
aI347
aI348
aI351
aI352
aI353
aI354
aI355
aI359
aI360
aI372
aI373
aI422
aI424
aI425
aI426
aI427
aI428
aI430
aI431
aI432
aI433
aI434
aI435
aI436
aI437
aI438
aI439
aI448
aI449
aI450
aI451
aI452
aI453
aI473
aI485
aI493
aI494
aI495
aI535
aI536
aI553
aI554
aI616
aI619
aI622
aI628
aI631
aI652
aI658
aI659
aI664
aI677
aI678
aI679
aI695
aI719
aI722
aI725
aI728
aI731
aI734
aI737
aI738
aI739
aI742
aI743
aI759
aI760
aI761
aI762
aI765
aI766
aI767
aI788
aI791
aI794
aI799
aI800
aI801
aI802
aI807
aI808
aI809
aI814
aI815
aI828
aI829
aI868
aI869
aI870
aI871
aI874
aI877
aI976
aI978
aI979
aI980
aI997
aI999
aI1000
aI1001
aI1025
aI1050
aI1077
aI1078
aI1088
aI1089
aI1099
aI1100
aI1101
aI1102
aI1131
aI1132
aI1162
aI1163
aI1166
aI1167
aI1168
aI1169
aI1170
aI1173
aI1179
aI1180
aI1187
aI1188
aI1214
aI1215
aI1216
aI1217
aI1218
aI1219
aI1221
aI1322
aI1323
aI1324
aI1327
aI1329
aI1330
aI1342
aI1343
aI1344
aI1347
aI1349
aI1350
aI1351
aI1352
aI1353
aI1354
aI1355
aI1356
aI1357
aI1358
aI1376
aI1377
aI1378
aI1381
aI1382
aI1383
aI1384
aI1385
aI1440
aI1441
aI1444
aI1472
aI1473
aI1477
aI1478
aI1480
aI1481
aI1482
aI1483
aI1484
aI1521
aI1526
aI1527
aI1528
aI1529
aI1530
aI1531
aI1532
aI1533
aI1534
aI1535
aI1536
aI1537
aI1538
aI1540
aI1541
aI1542
aI1547
aI1548
aI1549
asS'/usr/lib/python2.6/site-packages/pygments/formatters/html.py'
p144
(lp145
I10
aI11
aI12
aI14
aI15
aI19
aI20
aI21
aI24
aI27
aI36
aI48
aI49
aI50
aI51
aI52
aI53
aI57
aI65
aI76
aI82
aI97
aI102
aI105
aI337
aI339
aI340
aI341
aI343
aI344
aI345
aI346
aI347
aI348
aI349
aI350
aI351
aI352
aI353
aI355
aI356
aI358
aI362
aI363
aI364
aI365
aI366
aI367
aI368
aI369
aI370
aI371
aI377
aI378
aI380
aI387
aI388
aI389
aI390
aI391
aI392
aI393
aI394
aI395
aI396
aI397
aI398
aI399
aI400
aI402
aI404
aI405
aI406
aI407
aI410
aI412
aI418
aI420
aI421
aI425
aI426
aI427
aI428
aI429
aI430
aI431
aI433
aI434
aI435
aI436
aI437
aI438
aI439
aI440
aI441
aI442
aI444
aI445
aI446
aI447
aI448
aI449
aI451
aI452
aI453
aI455
aI458
aI500
aI554
aI574
aI584
aI591
aI598
aI653
aI668
aI676
asS'/usr/lib/python2.6/site-packages/sqlalchemy/orm/collections.py'
p146
(lp147
I97
aI99
aI100
aI101
aI102
aI103
aI105
aI106
aI107
aI110
aI111
aI112
aI114
aI117
aI147
aI162
aI176
aI201
aI205
aI246
aI247
aI249
aI273
aI274
aI276
aI290
aI307
aI308
aI310
aI324
aI354
aI355
aI357
aI378
aI399
aI420
aI443
aI445
aI447
aI462
aI472
aI473
aI474
aI476
aI477
aI478
aI480
aI481
aI483
aI485
aI486
aI489
aI491
aI492
aI495
aI536
aI540
aI542
aI544
aI548
aI552
aI557
aI562
aI564
aI566
aI568
aI570
aI571
aI573
aI586
aI597
aI606
aI611
aI617
aI636
aI639
aI640
aI641
aI642
aI644
aI645
aI647
aI648
aI650
aI651
aI654
aI666
aI667
aI670
aI673
aI679
aI680
aI681
aI682
aI684
aI686
aI688
aI715
aI736
aI741
aI742
aI743
aI744
aI748
aI749
aI751
aI753
aI754
aI755
aI756
aI759
aI767
aI768
aI772
aI776
aI778
aI782
aI783
aI784
aI785
aI786
aI790
aI794
aI795
aI798
aI802
aI803
aI806
aI813
aI818
aI819
aI821
aI823
aI879
aI882
aI886
aI888
aI895
aI901
aI904
aI905
aI906
aI908
aI909
aI910
aI911
aI912
aI913
aI915
aI916
aI921
aI922
aI924
aI925
aI928
aI929
aI931
aI932
aI964
aI965
aI967
aI968
aI980
aI981
aI983
aI984
aI989
aI990
aI992
aI993
aI997
aI998
aI1000
aI1001
aI1004
aI1005
aI1007
aI1008
aI1014
aI1015
aI1017
aI1018
aI1023
aI1024
aI1031
aI1032
aI1033
aI1035
aI1038
aI1042
aI1044
aI1053
aI1061
aI1069
aI1080
aI1089
aI1099
aI1108
aI1126
aI1127
aI1128
aI1129
aI1131
aI1134
aI1135
aI1137
aI1141
aI1147
aI1150
aI1154
aI1156
aI1165
aI1173
aI1183
aI1193
aI1202
aI1209
aI1216
aI1226
aI1233
aI1243
aI1255
aI1270
aI1282
aI1297
aI1298
aI1299
aI1300
aI1303
aI1304
aI1306
aI1307
aI1308
aI1309
aI1311
aI1312
aI1314
aI1315
aI1316
aI1317
aI1319
aI1320
aI1322
aI1323
aI1325
aI1326
aI1327
aI1328
aI1331
aI1332
aI1333
aI1334
aI1335
aI1336
aI1337
aI1338
aI1339
aI1341
aI1342
aI1344
aI1347
aI1355
aI1357
aI1373
aI1378
aI1379
aI1381
aI1395
aI1396
aI1398
aI1419
asS'/usr/lib/python2.6/site-packages/sqlalchemy/types.py'
p148
(lp149
I36
aI54
aI68
aI86
aI87
aI88
aI89
aI125
aI126
aI127
aI128
aI129
aI152
aI164
aI167
aI175
aI218
aI220
aI223
aI224
aI225
aI226
aI230
aI231
aI232
aI235
aI236
aI237
aI246
aI249
aI254
aI257
aI266
aI267
aI268
aI273
aI274
aI275
aI280
aI281
aI282
aI287
aI288
aI289
aI294
aI295
aI296
aI305
aI308
aI331
aI334
aI335
aI336
aI337
aI340
aI342
aI343
aI344
aI345
aI346
aI347
aI351
aI356
aI358
aI437
aI438
aI439
aI442
aI615
aI623
aI636
aI637
aI640
aI655
aI658
asS'/usr/lib/python2.6/site-packages/webhelpers/html/builder.py'
p150
(lp151
I250
aI253
aI254
aI255
aI256
asS'/usr/lib/python2.6/site-packages/paste/registry.py'
p152
(lp153
I119
aI120
aI121
aI137
aI146
aI149
aI166
aI175
aI184
aI185
aI186
aI187
aI188
aI189
aI191
aI192
aI195
aI196
aI197
aI215
aI216
aI217
aI218
aI219
aI228
aI229
aI230
aI296
aI306
aI310
aI311
aI312
aI313
aI314
aI315
aI316
aI344
aI345
aI346
aI364
aI365
aI368
aI369
aI370
aI371
aI374
aI375
aI399
aI401
asS'/usr/lib/python2.6/site-packages/pygments/lexers/functional.py'
p154
(lp155
I10
aI12
aI13
aI14
aI18
aI19
aI23
aI24
aI27
aI40
aI41
aI42
aI43
aI44
aI49
aI50
aI51
aI52
aI55
aI56
aI57
aI58
aI59
aI60
aI61
aI62
aI63
aI64
aI65
aI66
aI67
aI68
aI69
aI70
aI71
aI72
aI73
aI74
aI75
aI76
aI77
aI78
aI79
aI80
aI81
aI82
aI83
aI84
aI85
aI86
aI87
aI88
aI89
aI90
aI91
aI92
aI98
aI100
aI104
aI107
aI110
aI111
aI117
aI118
aI119
aI122
aI125
aI128
aI129
aI130
aI135
aI136
aI139
aI140
aI141
aI145
aI147
aI150
aI155
aI160
aI161
aI162
aI163
aI164
aI166
aI171
aI172
aI173
aI177
aI179
aI192
aI219
aI221
aI224
aI225
aI226
aI227
aI230
aI231
aI232
aI236
aI239
aI242
aI245
aI248
aI250
aI251
aI252
aI253
aI256
aI257
aI258
aI259
aI262
aI263
aI266
aI269
aI272
aI275
aI278
aI281
aI284
aI287
aI290
aI293
aI296
aI299
aI302
aI305
aI306
aI309
aI312
aI315
aI318
aI321
aI322
aI325
aI326
aI331
aI336
aI337
aI338
aI339
aI340
aI342
aI343
aI344
aI345
aI346
aI347
aI348
aI350
aI353
aI355
aI356
aI359
aI360
aI361
aI362
aI363
aI364
aI365
aI367
aI368
aI369
aI370
aI372
aI373
aI374
aI375
aI376
aI378
aI379
aI381
aI382
aI383
aI387
aI389
aI390
aI392
aI393
aI395
aI396
aI398
aI399
aI401
aI404
aI405
aI406
aI407
aI410
aI411
aI412
aI413
aI414
aI415
aI416
aI418
aI419
aI423
aI424
aI425
aI426
aI430
aI431
aI432
aI435
aI436
aI437
aI440
aI441
aI442
aI443
aI444
aI445
aI446
aI451
aI452
aI454
aI466
aI467
aI468
aI469
aI470
aI472
aI521
aI526
aI528
aI529
aI530
aI531
aI534
aI535
aI536
aI537
aI538
aI539
aI540
aI543
aI544
aI545
aI546
aI549
aI550
aI551
aI552
aI553
aI555
aI557
aI558
aI559
aI562
aI563
aI564
aI565
aI566
aI567
aI568
aI569
aI570
aI571
aI572
aI574
aI576
aI577
aI578
aI579
aI580
aI582
aI583
aI584
aI585
aI587
aI589
aI592
aI593
aI594
aI595
aI598
aI599
aI600
aI601
aI604
aI605
aI606
aI607
aI608
aI613
aI620
aI622
aI623
aI624
aI625
aI628
aI629
aI633
aI634
aI635
aI636
aI637
aI638
aI639
aI640
aI641
aI642
aI643
aI644
aI645
aI646
aI647
aI648
aI649
aI650
aI651
aI652
aI653
aI654
aI655
aI656
aI657
aI658
aI659
aI662
aI664
aI665
aI668
aI670
aI672
aI674
aI676
aI678
aI680
aI681
aI682
aI683
aI684
aI685
aI686
aI687
aI688
aI689
aI690
aI691
aI692
aI693
aI694
aI695
aI696
aI697
aI698
aI699
aI700
aI703
aI704
aI705
aI706
aI707
aI710
aI711
aI712
aI713
aI714
aI719
aI724
aI725
aI726
aI727
aI728
aI730
aI732
asS'/usr/lib/python2.6/site-packages/requests/cookies.py'
p156
(lp157
I7
aI9
aI10
aI12
aI13
aI15
aI20
aI30
aI32
aI37
aI40
aI43
aI46
aI49
aI52
aI55
aI58
aI62
aI65
aI68
aI73
aI78
aI80
aI87
aI90
aI94
aI108
aI115
aI131
aI133
aI136
aI151
aI153
aI162
aI178
aI186
aI194
aI203
aI211
aI219
aI229
aI239
aI245
aI251
aI255
aI268
aI286
aI293
aI299
aI304
aI339
aI362
asS'/usr/lib/python2.6/site-packages/sqlalchemy/orm/query.py'
p158
(lp159
I19
aI21
aI22
aI24
aI25
aI26
aI27
aI28
aI29
aI32
aI39
aI42
aI44
aI47
aI49
aI50
aI51
aI52
aI53
aI54
aI56
aI57
aI59
aI60
aI62
aI63
aI64
aI65
aI66
aI67
aI68
aI69
aI70
aI71
aI72
aI73
aI74
aI75
aI76
aI77
aI78
aI79
aI80
aI81
aI82
aI83
aI84
aI85
aI86
aI87
aI88
aI89
aI90
aI91
aI93
aI94
aI95
aI96
aI97
aI98
aI100
aI102
aI103
aI109
aI111
aI112
aI113
aI114
aI115
aI119
aI123
aI125
aI126
aI128
aI134
aI144
aI147
aI154
aI158
aI171
aI182
aI194
aI196
aI198
aI199
aI200
aI203
aI206
aI209
aI210
aI217
aI218
aI220
aI221
aI223
aI227
aI232
aI233
aI234
aI236
aI239
aI240
aI241
aI242
aI244
aI245
aI247
aI249
aI254
aI261
aI262
aI263
aI264
aI265
aI267
aI268
aI269
aI270
aI273
aI274
aI275
aI276
aI278
aI283
aI284
aI289
aI290
aI297
aI298
aI299
aI300
aI302
aI303
aI304
aI305
aI306
aI308
aI309
aI310
aI311
aI312
aI314
aI320
aI328
aI331
aI344
aI346
aI362
aI367
aI378
aI379
aI413
aI429
aI438
aI441
aI442
aI444
aI445
aI472
aI476
aI488
aI504
aI534
aI535
aI545
aI558
aI560
aI567
aI577
aI579
aI586
aI597
aI604
aI607
aI621
aI627
aI644
aI651
aI654
aI657
aI659
aI660
aI662
aI664
aI673
aI674
aI688
aI689
aI702
aI719
aI750
aI761
aI772
aI783
aI794
aI805
aI872
aI885
aI1100
aI1112
aI1135
aI1136
aI1137
aI1139
aI1144
aI1145
aI1148
aI1149
aI1152
aI1154
aI1156
aI1159
aI1160
aI1161
aI1167
aI1174
aI1176
aI1184
aI1192
aI1198
aI1200
aI1222
aI1237
aI1262
aI1287
aI1288
aI1289
aI1290
aI1291
aI1292
aI1294
aI1295
aI1296
aI1298
aI1307
aI1309
aI1310
aI1313
aI1315
aI1316
aI1318
aI1319
aI1320
aI1324
aI1326
aI1328
aI1330
aI1331
aI1332
aI1333
aI1334
aI1335
aI1337
aI1338
aI1339
aI1341
aI1346
aI1348
aI1352
aI1353
aI1355
aI1356
aI1358
aI1359
aI1361
aI1362
aI1363
aI1365
aI1367
aI1370
aI1371
aI1373
aI1374
aI1375
aI1377
aI1378
aI1379
aI1380
aI1381
aI1382
aI1383
aI1384
aI1385
aI1389
aI1390
aI1391
aI1393
aI1394
aI1395
aI1397
aI1399
aI1400
aI1401
aI1403
aI1405
aI1406
aI1407
aI1408
aI1410
aI1411
aI1413
aI1414
aI1415
aI1419
aI1421
aI1423
aI1424
aI1425
aI1426
aI1427
aI1428
aI1429
aI1431
aI1432
aI1433
aI1435
aI1437
aI1438
aI1439
aI1440
aI1441
aI1442
aI1445
aI1447
aI1448
aI1449
aI1450
aI1452
aI1480
aI1510
aI1604
aI1650
aI1653
aI1655
aI1656
aI1658
aI1660
aI1662
aI1674
aI1676
aI1677
aI1678
aI1680
aI1681
aI1682
aI1684
aI1703
aI1704
aI1706
aI1707
aI1708
aI1709
aI1711
aI1714
aI1716
aI1717
aI1719
aI1722
aI1731
aI1733
aI1734
aI1736
aI1738
aI1741
aI1743
aI1745
aI1752
aI1756
aI1759
aI1760
aI1762
aI1763
aI1764
aI1765
aI1766
aI1767
aI1768
aI1769
aI1772
aI1775
aI1777
aI1779
aI1781
aI1783
aI1784
aI1787
aI1789
aI1791
aI1794
aI1796
aI1797
aI1799
aI1803
aI1805
aI1806
aI1807
aI1808
aI1809
aI1810
aI1811
aI1812
aI1813
aI1816
aI1819
aI1822
aI1824
aI1826
aI1835
aI1836
aI1837
aI1843
aI1847
aI1848
aI1850
aI1851
aI1852
aI1853
aI1854
aI1856
aI1857
aI1859
aI1864
aI1865
aI1867
aI1868
aI1869
aI1871
aI1872
aI1874
aI1875
aI1876
aI1877
aI1878
aI1879
aI1880
aI1881
aI1882
aI1885
aI1886
aI1888
aI1903
aI1909
aI1911
aI1912
aI1915
aI1918
aI1924
aI1926
aI1928
aI1929
aI1931
aI1933
aI1934
aI1938
aI1941
aI1942
aI1943
aI1944
aI1950
aI1954
aI1955
aI1957
aI1960
aI1962
aI1964
aI1965
aI1967
aI1969
aI1976
aI1977
aI1978
aI1979
aI1980
aI1981
aI1982
aI1983
aI1984
aI1985
aI1988
aI1995
aI1999
aI2000
aI2002
aI2003
aI2006
aI2007
aI2008
aI2012
aI2021
aI2029
aI2032
aI2034
aI2035
aI2043
aI2045
aI2046
aI2047
aI2048
aI2049
aI2052
aI2053
aI2057
aI2058
aI2059
aI2061
aI2067
aI2068
aI2070
aI2071
aI2073
aI2076
aI2077
aI2079
aI2081
aI2082
aI2083
aI2084
aI2086
aI2089
aI2091
aI2092
aI2094
aI2100
aI2101
aI2102
aI2103
aI2104
aI2107
aI2108
aI2109
aI2110
aI2111
aI2112
aI2113
aI2114
aI2115
aI2116
aI2117
aI2118
aI2120
aI2121
aI2123
aI2125
aI2128
aI2136
aI2137
aI2139
aI2141
aI2142
aI2143
aI2144
aI2146
asS'/afs/cern.ch/user/a/aalvarez/Source/fts3-rest/src/fts3rest/fts3rest/tests/functional/test_job_invalid_submit.py'
p160
(lp161
I1
aI2
aI4
aI7
aI11
aI13
aI17
aI19
aI20
aI21
aI22
aI25
aI27
aI29
aI30
aI32
aI36
aI37
aI38
aI40
aI41
aI42
aI43
aI46
aI48
aI50
aI51
aI53
aI57
aI58
aI60
aI61
aI62
aI63
aI64
aI65
aI66
aI67
aI69
aI72
aI73
aI74
aI75
aI76
aI79
aI81
aI83
aI84
aI86
aI90
aI91
aI92
aI93
aI94
aI95
aI96
aI98
aI100
aI101
aI102
aI103
aI104
aI107
aI108
aI109
aI110
aI111
aI112
aI113
aI114
aI117
aI118
aI119
aI120
aI121
aI122
aI123
aI124
aI126
aI128
aI129
aI130
aI131
aI132
aI135
aI136
aI137
aI138
aI139
aI140
aI141
aI142
aI145
aI146
aI147
aI148
aI149
aI150
aI151
aI152
aI153
aI154
aI155
aI156
aI157
aI158
aI159
aI161
aI162
aI163
aI164
aI165
aI166
aI167
aI168
aI169
aI170
aI171
aI172
aI173
aI175
aI178
aI179
aI180
aI181
aI182
aI183
aI184
aI185
aI186
aI187
aI188
aI189
aI190
aI191
aI192
aI194
aI195
aI196
aI197
aI198
aI199
aI200
aI201
aI202
aI203
aI204
aI205
aI206
aI208
aI211
aI212
aI213
aI214
aI215
aI216
aI217
aI218
aI220
aI222
aI223
aI224
aI225
aI228
aI229
aI230
aI231
aI232
aI233
aI234
aI235
aI237
aI239
aI240
aI241
aI242
aI243
aI244
aI245
aI246
aI247
aI248
aI249
aI250
aI252
aI253
aI254
aI255
aI256
aI257
aI258
aI259
aI260
aI261
aI262
aI263
aI264
aI265
aI269
aI270
aI271
aI272
aI273
aI275
aI276
aI277
aI278
aI279
aI280
aI282
aI284
aI286
aI287
aI288
aI289
aI290
aI291
aI292
aI293
aI294
aI295
aI297
aI298
aI299
aI300
aI301
aI304
aI306
aI308
aI309
aI310
aI311
aI315
aI316
aI317
aI318
aI319
aI320
aI321
aI323
aI325
aI326
aI327
aI328
aI331
aI332
aI333
aI335
aI336
aI337
aI338
aI342
aI343
aI344
aI345
aI346
aI347
aI348
aI350
aI352
aI353
aI354
aI355
aI358
aI359
aI360
aI362
aI363
aI364
aI365
aI369
aI370
aI371
aI372
aI373
aI374
aI375
aI377
aI379
aI380
aI381
aI382
aI385
aI386
aI387
aI389
aI390
aI391
aI392
aI393
aI394
aI396
aI397
aI398
aI399
aI400
aI401
aI402
aI403
aI404
aI406
aI407
aI408
aI409
aI410
aI411
aI412
aI413
aI414
aI415
aI416
aI417
aI418
aI419
aI420
aI421
aI422
aI423
aI424
aI425
aI426
aI427
aI428
aI429
aI431
aI432
aI433
aI434
aI436
aI437
aI440
aI441
aI442
aI443
aI446
aI448
aI449
asS'/usr/lib/python2.6/site-packages/paste/cascade.py'
p162
(lp163
I7
aI8
aI9
aI10
aI11
aI13
aI15
aI43
aI55
aI57
aI74
aI132
asS'/afs/cern.ch/user/a/aalvarez/Source/fts3-rest/src/fts3rest/fts3rest/lib/api/__init__.py'
p164
(lp165
I1
aI2
aI3
asS'/afs/cern.ch/user/a/aalvarez/Source/fts3-rest/src/fts3rest/fts3rest/controllers/archive.py'
p166
(lp167
I1
aI3
aI4
aI5
aI6
aI7
aI8
aI11
aI14
aI16
aI17
aI18
aI19
aI20
aI21
aI22
aI23
aI25
aI30
aI31
aI32
aI33
aI34
aI36
aI37
aI38
aI39
aI44
aI45
aI46
aI51
aI53
aI54
aI56
aI57
aI62
aI63
aI64
aI66
asS'/usr/lib/python2.6/site-packages/requests/compat.py'
p168
(lp169
I5
aI7
aI9
aI16
aI19
aI22
aI25
aI28
aI31
aI34
aI37
aI40
aI43
aI46
aI49
aI58
aI60
aI61
aI62
aI65
aI68
aI71
aI72
aI73
aI74
aI76
aI77
aI85
aI86
aI87
aI88
aI89
aI90
aI91
aI93
aI94
aI98
aI99
aI100
aI101
aI102
asS'/usr/lib/python2.6/site-packages/beaker/ext/__init__.py'
p170
(lp171
I1
asS'/usr/lib/python2.6/site-packages/nose/plugins/errorclass.py'
p172
(lp173
I130
aI131
aI133
aI134
aI138
aI140
aI141
aI142
aI143
aI144
asS'/usr/lib/python2.6/site-packages/routes/util.py'
p174
(lp175
I300
aI301
aI302
aI303
aI477
aI480
aI482
aI483
aI484
aI485
aI486
aI487
aI488
aI491
aI492
aI494
aI495
aI496
aI497
asS'/usr/lib/python2.6/site-packages/nose/inspector.py'
p176
(lp177
I23
aI26
aI27
aI29
aI30
aI33
aI34
aI35
aI37
aI38
aI39
aI50
aI51
aI52
aI53
aI54
aI55
aI56
aI57
aI59
aI60
aI61
aI79
aI80
aI82
aI83
aI84
aI86
aI87
aI91
aI92
aI93
aI94
aI95
aI99
aI100
aI101
aI102
aI105
aI106
aI118
aI119
aI120
aI121
aI122
aI123
aI125
aI126
aI127
aI129
aI130
aI131
aI133
aI134
aI135
aI136
aI137
aI138
aI139
aI140
aI141
aI142
aI144
aI145
aI146
aI154
aI155
aI156
aI157
aI170
aI171
aI172
aI174
aI175
aI177
aI179
aI181
aI182
aI183
aI184
aI186
aI187
aI188
aI189
aI195
aI196
aI199
aI201
aI205
aI206
asS'/usr/lib/python2.6/site-packages/paste/deploy/loadwsgi.py'
p178
(lp179
I46
aI47
aI55
aI56
aI57
aI58
aI61
aI62
aI63
aI104
aI105
aI109
aI110
aI204
aI213
aI214
aI215
aI216
aI222
aI223
aI224
aI225
aI229
aI230
aI231
aI235
aI236
aI237
aI239
aI240
aI241
aI245
aI246
aI247
aI248
aI253
aI254
aI255
aI260
aI261
aI262
aI263
aI267
aI268
aI271
aI272
aI274
aI275
aI276
aI277
aI278
aI284
aI285
aI324
aI326
aI331
aI332
aI334
aI337
aI345
aI346
aI347
aI348
aI349
aI352
aI353
aI354
aI358
aI359
aI360
aI361
aI362
aI363
aI364
aI365
aI367
aI368
aI369
aI370
aI371
aI372
aI373
aI374
aI378
aI382
aI384
aI385
aI386
aI388
aI391
aI392
aI396
aI401
aI406
aI407
aI408
aI409
aI414
aI425
aI429
aI430
aI431
aI432
aI433
aI434
aI436
aI438
aI439
aI515
aI516
aI517
aI518
aI519
aI520
aI521
aI522
aI523
aI529
aI536
aI539
aI540
aI544
aI545
aI546
aI547
aI548
aI554
aI557
aI560
aI561
aI562
aI563
aI564
aI565
aI566
aI567
aI568
aI569
aI576
aI578
aI579
aI580
aI581
aI582
aI583
aI584
aI585
aI586
aI587
aI588
aI589
aI601
aI605
aI612
aI613
aI614
aI618
aI619
aI620
aI621
aI622
aI625
aI628
aI629
aI630
aI631
aI632
aI633
asS'/usr/lib/python2.6/site-packages/routes/route.py'
p180
(lp181
I42
aI43
aI44
aI45
aI46
aI47
aI48
aI49
aI50
aI53
aI54
aI55
aI59
aI60
aI61
aI64
aI67
aI70
aI73
aI77
aI82
aI86
aI87
aI88
aI90
aI91
aI94
aI95
aI99
aI100
aI102
aI106
aI110
aI111
aI114
aI119
aI120
aI121
aI122
aI124
aI125
aI129
aI131
aI132
aI141
aI142
aI143
aI144
aI145
aI146
aI147
aI148
aI149
aI150
aI151
aI152
aI153
aI154
aI155
aI156
aI157
aI158
aI159
aI166
aI167
aI168
aI169
aI170
aI171
aI172
aI175
aI176
aI177
aI179
aI181
aI182
aI184
aI185
aI186
aI198
aI199
aI203
aI204
aI205
aI206
aI207
aI236
aI238
aI241
aI244
aI245
aI246
aI247
aI248
aI251
aI252
aI253
aI254
aI255
aI256
aI257
aI258
aI260
aI273
aI282
aI284
aI286
aI287
aI292
aI293
aI294
aI295
aI296
aI298
aI299
aI302
aI304
aI305
aI306
aI460
aI463
aI465
aI466
aI468
aI470
aI477
aI478
aI479
aI480
aI483
aI484
aI486
aI488
aI491
aI492
aI493
aI494
aI495
aI498
aI499
aI503
aI506
aI507
aI508
aI511
aI516
aI520
asS'/usr/lib/python2.6/site-packages/weberror/evalexception.py'
p182
(lp183
I24
aI25
aI26
aI27
aI28
aI29
aI30
aI31
aI32
aI33
aI34
aI35
aI36
aI38
aI40
aI41
aI42
aI43
aI44
aI46
aI47
aI48
aI49
aI50
aI51
aI53
aI55
aI63
aI79
aI85
aI105
aI140
aI146
aI163
aI164
aI166
aI168
aI188
aI189
aI192
aI194
aI195
aI196
aI197
aI198
aI199
aI222
aI237
aI247
aI274
aI276
aI295
aI297
aI307
aI309
aI321
aI323
aI334
aI336
aI340
aI356
aI359
aI382
aI384
aI413
aI415
aI486
aI488
aI515
aI525
aI533
aI537
aI582
aI584
aI589
aI603
aI614
aI639
aI641
aI652
aI718
aI748
aI765
aI768
aI795
asS'/usr/lib/python2.6/site-packages/beaker/ext/database.py'
p184
(lp185
I1
aI2
aI3
aI5
aI6
aI7
aI8
aI10
aI12
aI14
aI15
aI16
aI17
aI18
aI22
aI23
aI25
aI26
aI27
aI29
aI30
aI95
aI98
aI103
aI127
aI141
aI150
aI153
aI156
aI159
aI162
aI165
aI166
asS'/usr/lib/python2.6/site-packages/pylons/configuration.py'
p186
(lp187
I124
aI134
aI138
aI139
aI140
aI144
aI146
aI148
aI240
aI241
aI242
aI243
aI244
aI245
aI246
aI291
aI292
aI293
aI294
aI295
aI297
aI298
aI303
aI305
aI306
aI308
aI312
aI313
aI314
aI317
aI320
aI323
aI324
aI327
aI328
aI339
aI340
aI341
aI342
aI343
aI344
aI345
aI346
aI347
aI348
aI349
aI350
aI351
aI352
aI353
aI356
aI359
aI361
aI362
aI363
aI366
aI367
aI369
aI370
aI375
aI376
aI377
aI380
aI381
aI382
aI383
aI384
aI387
aI388
aI391
aI395
aI396
aI397
aI398
aI402
aI405
aI408
aI409
aI411
aI412
aI414
aI417
aI418
aI421
aI422
aI425
aI428
aI429
aI437
aI438
aI440
aI441
aI443
asS'/usr/lib/python2.6/site-packages/urllib3/connectionpool.py'
p188
(lp189
I7
aI8
aI10
aI12
aI13
aI15
aI16
aI17
aI19
aI20
aI21
aI22
aI25
aI26
aI27
aI28
aI30
aI31
aI32
aI33
aI35
aI36
aI42
aI43
aI44
aI45
aI54
aI56
aI57
aI58
aI60
aI64
aI65
aI70
aI72
aI74
aI76
aI77
aI78
aI84
aI88
aI89
aI90
aI92
aI93
aI105
aI120
aI124
aI126
aI127
aI129
aI133
aI138
aI175
aI177
aI179
aI180
aI197
aI206
aI239
aI267
aI298
aI314
aI331
aI332
aI333
aI500
aI511
aI513
aI515
aI516
aI517
aI518
aI519
aI529
aI550
asS'/usr/lib/python2.6/site-packages/pytz/tzinfo.py'
p190
(lp191
I1
aI3
aI4
aI5
aI6
aI10
aI12
aI14
aI15
aI17
aI18
aI19
aI20
aI21
aI22
aI24
aI25
aI26
aI37
aI38
aI51
aI53
aI58
aI60
aI61
aI62
aI64
aI68
aI73
aI74
aI78
aI86
aI94
aI102
aI108
aI114
aI117
aI123
aI129
aI131
aI132
aI134
aI137
aI138
aI140
aI153
aI160
aI205
aI340
aI369
aI406
aI443
aI457
aI468
aI469
aI472
aI480
aI483
aI489
aI492
asS'/usr/lib/python2.6/site-packages/pylons/controllers/core.py'
p192
(lp193
I59
aI60
aI74
aI75
aI76
aI77
aI79
aI80
aI81
aI82
aI83
aI85
aI86
aI87
aI89
aI90
aI91
aI92
aI93
aI95
aI96
aI97
aI98
aI99
aI100
aI101
aI102
aI103
aI106
aI107
aI108
aI109
aI113
aI116
aI118
aI131
aI143
aI144
aI145
aI146
aI147
aI148
aI153
aI154
aI155
aI156
aI160
aI161
aI164
aI165
aI168
aI170
aI172
aI181
aI185
aI188
aI191
aI192
aI201
aI202
aI203
aI204
aI207
aI210
aI211
aI213
aI214
aI216
aI221
aI222
aI223
aI224
aI227
aI232
aI238
aI241
aI244
aI251
aI252
aI255
aI256
aI257
aI258
aI262
aI263
aI267
aI270
aI271
aI273
aI278
aI280
aI281
aI282
aI284
aI286
aI289
asS'/usr/lib/python2.6/site-packages/weberror/reporter.py'
p194
(lp195
I4
aI5
aI6
aI7
aI8
aI10
aI12
aI21
aI24
aI27
aI30
aI33
aI35
aI36
aI37
aI38
aI39
aI40
aI41
aI43
aI61
aI69
aI98
aI100
aI101
aI103
aI107
aI116
aI118
aI119
aI121
aI125
aI130
aI132
aI135
aI139
asS'/usr/lib/python2.6/site-packages/sqlalchemy/databases/sqlite.py'
p196
(lp197
I150
aI151
aI152
aI153
aI155
aI156
aI159
aI163
aI171
aI172
aI174
aI175
aI177
aI178
aI181
aI182
aI183
aI185
aI186
aI192
aI195
aI201
aI202
aI203
aI208
aI248
aI269
aI272
aI276
aI280
aI346
aI347
aI348
aI359
aI360
aI361
aI362
aI363
aI364
aI370
aI372
aI375
aI376
aI377
aI378
aI379
aI382
aI389
aI396
aI398
aI399
aI400
aI401
aI402
aI403
aI405
aI408
aI436
aI437
aI440
aI441
aI442
aI444
aI448
aI449
aI451
aI547
aI548
aI549
aI589
aI590
aI591
aI592
aI593
aI595
aI597
aI598
aI608
aI609
aI610
aI613
aI614
aI615
aI639
asS'/usr/lib/python2.6/site-packages/pygments/formatters/_mapping.py'
p198
(lp199
I14
aI16
aI19
aI20
aI21
aI22
aI23
aI24
aI25
aI26
aI27
aI28
aI29
aI30
aI31
aI33
aI34
aI35
aI36
aI37
aI38
aI39
aI40
aI41
aI42
aI43
aI44
aI45
aI46
aI49
asS'/usr/lib/python2.6/site-packages/pylons/templating.py'
p200
(lp201
I385
aI386
aI387
aI388
aI389
aI390
aI391
aI392
aI393
aI406
aI407
aI410
aI411
aI413
aI414
aI415
aI416
aI417
asS'/usr/lib/python2.6/site-packages/nose/plugins/failuredetail.py'
p202
(lp203
I39
aI40
aI41
aI42
asS'/usr/lib/python2.6/site-packages/pygments/lexers/special.py'
p204
(lp205
I10
aI12
aI13
aI15
aI16
aI17
aI20
aI23
aI26
aI27
aI28
aI29
aI30
aI32
aI36
aI38
aI40
aI51
aI52
aI53
aI54
aI55
aI57
aI62
aI80
asS'/usr/lib/python2.6/site-packages/pytz/tzfile.py'
p206
(lp207
I4
aI6
aI7
aI8
aI10
aI11
aI14
aI112
asS'/usr/lib/python2.6/site-packages/paste/deploy/converters.py'
p208
(lp209
I4
aI5
aI6
aI7
aI8
aI9
aI13
asS'/usr/lib/python2.6/site-packages/weberror/errormiddleware.py'
p210
(lp211
I6
aI7
aI8
aI9
aI10
aI11
aI14
aI15
aI16
aI17
aI18
aI20
aI22
aI23
aI25
aI27
aI81
aI83
aI84
aI85
aI86
aI87
aI88
aI89
aI90
aI91
aI92
aI93
aI94
aI95
aI96
aI97
aI98
aI101
aI103
aI105
aI106
aI107
aI108
aI109
aI110
aI111
aI112
aI113
aI114
aI115
aI116
aI123
aI124
aI126
aI127
aI128
aI129
aI130
aI131
aI133
aI134
aI135
aI136
aI137
aI138
aI146
aI148
aI155
aI156
aI179
aI185
aI208
aI209
aI213
aI217
aI223
aI225
aI233
aI236
aI268
aI274
aI287
aI295
aI296
aI301
aI327
aI329
aI330
aI331
aI332
aI333
aI334
aI335
aI336
aI339
aI340
aI341
aI342
aI343
aI344
aI345
aI346
aI347
aI348
aI349
aI350
aI351
aI352
aI448
aI468
aI482
aI485
aI486
aI487
aI488
aI489
aI490
asS'/usr/lib/python2.6/site-packages/sqlalchemy/orm/strategies.py'
p212
(lp213
I7
aI9
aI10
aI11
aI12
aI13
aI14
aI18
aI19
aI22
aI23
aI24
aI25
aI26
aI27
aI28
aI29
aI30
aI34
aI35
aI37
aI40
aI41
aI43
aI46
aI47
aI49
aI50
aI51
aI52
aI53
aI54
aI55
aI56
aI57
aI58
aI59
aI60
aI61
aI62
aI63
aI64
aI65
aI66
aI69
aI75
aI76
aI79
aI85
aI88
aI89
aI91
aI92
aI93
aI95
aI96
aI97
aI98
aI99
aI101
aI102
aI103
aI104
aI106
aI107
aI108
aI109
aI110
aI113
aI114
aI115
aI116
aI117
aI118
aI119
aI121
aI126
aI135
aI137
aI138
aI140
aI168
aI192
aI194
aI195
aI197
aI219
aI225
aI236
aI243
aI250
aI252
aI253
aI255
aI258
aI300
aI301
aI305
aI311
aI312
aI314
aI317
aI318
aI320
aI321
aI322
aI324
aI330
aI331
aI333
aI342
aI352
aI354
aI355
aI357
aI358
aI359
aI361
aI366
aI367
aI368
aI370
aI371
aI374
aI375
aI376
aI377
aI378
aI379
aI382
aI383
aI386
aI387
aI391
aI392
aI393
aI397
aI398
aI400
aI403
aI404
aI406
aI408
aI432
aI433
aI436
aI438
aI439
aI454
aI458
aI460
aI465
aI467
aI468
aI469
aI470
aI472
aI478
aI479
aI480
aI481
aI483
aI484
aI485
aI486
aI488
aI489
aI490
aI491
aI493
aI495
aI496
aI498
aI504
aI506
aI507
aI509
aI511
aI512
aI514
aI515
aI517
aI520
aI523
aI524
aI526
aI527
aI528
aI530
aI533
aI534
aI541
aI543
aI548
aI561
aI564
aI566
aI568
aI569
aI570
aI577
aI578
aI580
aI581
aI582
aI584
aI585
aI587
aI590
aI591
aI593
aI596
aI608
aI609
aI610
aI612
aI614
aI616
aI617
aI619
aI623
aI624
aI628
aI629
aI631
aI632
aI638
aI640
aI643
aI648
aI662
aI665
aI666
aI668
aI669
aI680
aI682
aI685
aI687
aI692
aI693
aI694
aI696
aI698
aI701
aI703
aI704
aI712
aI713
aI719
aI720
aI721
aI728
aI729
aI731
aI733
aI734
aI735
aI737
aI749
aI750
aI755
aI756
aI758
aI760
aI762
aI764
aI770
aI776
aI778
aI779
aI785
aI789
aI792
aI800
aI801
aI808
aI812
aI823
aI824
aI827
aI837
aI840
asS'/usr/lib/python2.6/site-packages/paste/util/import_string.py'
p214
(lp215
I40
aI41
aI42
aI43
aI44
aI45
aI46
aI47
aI48
aI49
aI53
aI54
aI61
aI67
aI68
aI69
aI70
aI71
aI80
aI81
asS'/afs/cern.ch/user/a/aalvarez/Source/fts3-rest/src/fts3rest/fts3rest/lib/middleware/fts3auth/constants.py'
p216
(lp217
I2
aI3
aI4
aI5
aI8
aI9
aI10
asS'/usr/lib/python2.6/site-packages/urllib3/request.py'
p218
(lp219
I7
aI8
aI9
aI10
aI12
aI15
aI18
aI39
aI41
aI43
aI45
aI46
aI51
aI73
aI82
aI83
asS'/usr/lib/python2.6/site-packages/pkg_resources.py'
p220
(lp221
I175
aI176
aI291
aI292
aI293
aI295
aI307
aI410
aI411
aI412
aI413
aI434
aI435
aI438
aI447
aI448
aI449
aI450
aI451
aI471
aI472
aI473
aI474
aI475
aI476
aI489
aI490
aI492
aI493
aI494
aI495
aI496
aI497
aI499
aI500
aI501
aI502
aI504
aI518
aI519
aI520
aI521
aI523
aI524
aI525
aI528
aI530
aI531
aI532
aI534
aI535
aI547
aI548
aI551
aI552
aI554
aI648
aI650
aI651
aI653
aI666
aI667
aI1094
aI1103
aI1104
aI1154
aI1158
aI1160
aI1168
aI1219
aI1220
aI1263
aI1275
aI1276
aI1277
aI1279
aI1533
aI1534
aI1649
aI1650
aI1651
aI1682
aI1684
aI1685
aI1694
aI1695
aI1696
aI1697
aI1698
aI1700
aI1703
aI1704
aI1706
aI1709
aI1739
aI1740
aI1742
aI1743
aI1744
aI1791
aI1792
aI1793
aI1794
aI1795
aI1797
aI1823
aI1826
aI1827
aI1828
aI1829
aI1830
aI1842
aI1843
aI1844
aI1845
aI1846
aI1848
aI1849
aI1850
aI1870
aI1871
aI1872
aI1873
aI1874
aI1875
aI1879
aI1912
aI1913
aI1914
aI1915
aI1918
aI1920
aI1921
aI1927
aI1929
aI1930
aI1931
aI1932
aI1933
aI1947
aI1948
aI1949
aI1950
aI1951
aI1954
aI1957
aI1959
aI1960
aI1975
aI1976
aI1977
aI1978
aI1983
aI1984
aI1985
aI1987
aI1994
aI2008
aI2010
aI2011
aI2012
aI2013
aI2015
aI2016
aI2023
aI2026
aI2027
aI2028
aI2029
aI2033
aI2034
aI2036
aI2037
aI2052
aI2053
aI2055
aI2056
aI2057
aI2058
aI2059
aI2063
aI2064
aI2065
aI2066
aI2067
aI2068
aI2069
aI2071
aI2072
aI2073
aI2107
aI2108
aI2109
aI2110
aI2111
aI2116
aI2117
aI2118
aI2119
aI2120
aI2126
aI2127
aI2144
aI2145
aI2146
aI2147
aI2148
aI2149
aI2150
aI2151
aI2152
aI2157
aI2158
aI2159
aI2160
aI2167
aI2170
aI2171
aI2172
aI2176
aI2177
aI2178
aI2179
aI2180
aI2208
aI2209
aI2210
aI2226
aI2227
aI2229
aI2233
aI2234
aI2235
aI2236
aI2237
aI2239
aI2240
aI2245
aI2268
aI2270
aI2280
aI2283
aI2284
aI2286
aI2287
aI2288
aI2290
aI2291
aI2292
aI2293
aI2294
aI2304
aI2305
aI2306
aI2307
aI2308
aI2313
aI2318
aI2321
aI2322
aI2323
aI2324
aI2327
aI2407
aI2409
aI2411
aI2413
aI2414
aI2422
aI2423
aI2426
aI2427
aI2429
aI2430
aI2432
aI2437
aI2438
aI2439
aI2441
aI2442
aI2443
aI2445
aI2446
aI2447
aI2449
aI2450
aI2451
aI2452
aI2453
aI2456
aI2457
aI2458
aI2485
aI2486
aI2487
aI2488
aI2489
aI2490
aI2492
aI2493
aI2495
aI2504
aI2507
aI2508
aI2509
aI2512
aI2513
aI2514
aI2515
aI2516
aI2517
aI2518
aI2520
aI2521
aI2525
aI2531
aI2532
aI2533
aI2534
aI2538
aI2544
aI2569
aI2579
aI2584
aI2585
aI2586
aI2591
aI2592
aI2593
aI2610
aI2611
aI2612
aI2613
aI2614
aI2615
aI2616
aI2617
aI2618
aI2622
aI2625
aI2675
asS'/usr/lib/python2.6/site-packages/sqlalchemy/orm/session.py'
p222
(lp223
I7
aI9
aI10
aI11
aI12
aI13
aI14
aI17
aI18
aI19
aI22
aI23
aI24
aI26
aI29
aI30
aI172
aI178
aI179
aI180
aI181
aI183
aI184
aI186
aI187
aI188
aI189
aI190
aI192
aI201
aI202
aI203
aI204
aI207
aI222
aI224
aI225
aI226
aI227
aI228
aI229
aI230
aI231
aI236
aI237
aI239
aI243
aI244
aI245
aI250
aI251
aI254
aI256
aI258
aI259
aI260
aI261
aI263
aI264
aI265
aI266
aI268
aI269
aI270
aI278
aI279
aI280
aI281
aI282
aI284
aI285
aI287
aI288
aI290
aI304
aI305
aI307
aI308
aI309
aI311
aI312
aI314
aI315
aI317
aI318
aI319
aI320
aI322
aI329
aI331
aI333
aI336
aI339
aI340
aI342
aI344
aI350
aI351
aI352
aI353
aI356
aI357
aI361
aI362
aI364
aI372
aI373
aI375
aI376
aI377
aI378
aI380
aI381
aI382
aI384
aI387
aI388
aI390
aI391
aI393
aI413
aI423
aI424
aI426
aI427
aI428
aI429
aI430
aI431
aI434
aI435
aI436
aI437
aI438
aI440
aI443
aI456
aI524
aI531
aI533
aI534
aI535
aI536
aI544
aI550
aI551
aI554
aI556
aI557
aI558
aI559
aI560
aI561
aI562
aI563
aI564
aI565
aI566
aI567
aI568
aI569
aI570
aI572
aI581
aI582
aI583
aI585
aI608
aI609
aI610
aI611
aI617
aI618
aI619
aI621
aI635
aI651
aI667
aI673
aI675
aI693
aI717
aI718
aI719
aI723
aI750
aI752
aI754
aI755
aI757
aI762
aI772
aI773
aI774
aI775
aI777
aI784
aI791
aI792
aI794
aI795
aI796
aI798
aI803
aI823
aI838
aI850
aI859
aI862
aI873
aI874
aI892
aI895
aI897
aI898
aI899
aI901
aI902
aI903
aI905
aI934
aI940
aI953
aI954
aI957
aI958
aI959
aI968
aI981
aI999
aI1008
aI1009
aI1012
aI1013
aI1015
aI1017
aI1018
aI1019
aI1024
aI1025
aI1028
aI1029
aI1030
aI1031
aI1033
aI1034
aI1035
aI1037
aI1038
aI1040
aI1053
aI1059
aI1078
aI1088
aI1089
aI1091
aI1097
aI1098
aI1099
aI1102
aI1104
aI1105
aI1108
aI1114
aI1115
aI1119
aI1124
aI1130
aI1134
aI1136
aI1137
aI1139
aI1142
aI1157
aI1158
aI1159
aI1160
aI1161
aI1162
aI1164
aI1166
aI1167
aI1168
aI1171
aI1172
aI1173
aI1175
aI1176
aI1182
aI1184
aI1185
aI1186
aI1187
aI1188
aI1200
aI1202
aI1203
aI1204
aI1205
aI1206
aI1208
aI1210
aI1211
aI1213
aI1216
aI1217
aI1218
aI1220
aI1224
aI1230
aI1231
aI1236
aI1237
aI1242
aI1243
aI1244
aI1245
aI1247
aI1261
aI1262
aI1263
aI1267
aI1278
aI1279
aI1280
aI1281
aI1287
aI1293
aI1294
aI1295
aI1298
aI1311
aI1316
aI1317
aI1319
aI1344
aI1349
aI1352
aI1353
aI1354
aI1356
aI1358
aI1359
aI1360
aI1361
aI1363
aI1364
aI1368
aI1370
aI1375
aI1376
aI1378
aI1381
aI1391
aI1394
aI1398
aI1401
aI1403
aI1404
aI1405
aI1415
aI1416
aI1419
aI1422
aI1423
aI1424
aI1426
aI1429
aI1430
aI1431
aI1432
aI1434
aI1436
aI1441
aI1450
aI1453
aI1492
aI1498
aI1506
aI1508
aI1533
aI1539
aI1545
aI1547
aI1549
aI1551
aI1552
aI1556
aI1559
aI1560
aI1561
aI1564
aI1584
aI1585
aI1586
aI1590
aI1592
aI1597
aI1598
aI1599
aI1600
aI1606
aI1607
aI1608
aI1609
aI1610
asS'/usr/lib/python2.6/site-packages/beaker/ext/google.py'
p224
(lp225
I1
aI2
aI3
aI5
aI6
aI7
aI9
aI11
aI12
aI13
aI14
asS'/usr/lib/python2.6/site-packages/sqlalchemy/orm/exc.py'
p226
(lp227
I7
aI9
aI12
aI15
aI16
aI19
aI20
aI23
aI24
aI27
aI28
aI30
aI49
aI50
aI52
aI58
aI59
aI62
aI63
aI66
aI67
aI70
aI71
aI75
aI76
aI77
aI79
aI88
asS'/usr/lib/python2.6/site-packages/sqlalchemy/log.py'
p228
(lp229
I50
aI51
aI53
aI55
aI56
aI57
aI72
aI73
aI74
aI76
aI87
aI88
aI89
aI90
aI110
asS'/usr/lib/python2.6/site-packages/pytz/__init__.py'
p230
(lp231
I9
aI12
aI13
aI16
aI18
aI21
aI22
aI23
aI24
aI25
aI28
aI29
aI31
aI32
aI36
aI37
aI38
aI41
aI42
aI46
aI47
aI50
aI62
aI86
aI98
aI99
aI102
aI104
aI157
aI162
aI163
aI166
aI175
aI176
aI178
aI179
aI180
aI182
aI183
aI185
aI188
aI189
aI191
aI194
aI200
aI206
aI209
aI213
aI216
aI246
aI249
aI256
aI259
aI260
aI261
aI262
aI267
aI273
aI295
aI296
aI300
aI315
aI318
aI323
aI324
aI334
aI339
aI341
aI343
aI349
aI352
aI355
aI358
aI361
aI364
aI370
aI377
aI439
aI442
aI448
aI451
aI452
aI453
aI454
aI455
aI457
aI458
aI459
aI460
aI461
aI463
aI465
aI466
aI467
aI468
aI469
aI470
aI471
aI472
aI473
aI474
aI475
aI476
aI477
aI478
asS'/usr/lib/python2.6/site-packages/sqlalchemy/orm/attributes.py'
p232
(lp233
I15
aI17
aI18
aI19
aI20
aI22
aI23
aI24
aI27
aI28
aI29
aI31
aI32
aI33
aI34
aI41
aI46
aI49
aI51
aI79
aI93
aI95
aI101
aI102
aI103
aI104
aI106
aI109
aI113
aI114
aI116
aI119
aI120
aI122
aI125
aI128
aI138
aI141
aI146
aI147
aI149
aI150
aI152
aI155
aI156
aI157
aI158
aI160
aI161
aI162
aI164
aI167
aI228
aI229
aI232
aI233
aI234
aI279
aI280
aI281
aI282
aI283
aI284
aI285
aI287
aI288
aI289
aI290
aI292
aI309
aI317
aI337
aI340
aI341
aI342
aI343
aI344
aI346
aI348
aI351
aI352
aI354
aI362
aI363
aI364
aI366
aI367
aI368
aI370
aI371
aI372
aI374
aI375
aI376
aI378
aI379
aI380
aI383
aI385
aI388
aI391
aI394
aI397
aI403
aI405
aI415
aI416
aI418
aI419
aI421
aI435
aI436
aI437
aI439
aI440
aI443
aI444
aI446
aI448
aI450
aI452
aI454
aI459
aI463
aI468
aI471
aI473
aI476
aI477
aI485
aI494
aI497
aI501
aI510
aI514
aI529
aI533
aI535
aI536
aI539
aI540
aI541
aI542
aI543
aI544
aI545
aI547
aI552
aI553
aI556
aI557
aI558
aI562
aI578
aI587
aI604
aI614
aI615
aI616
aI619
aI620
aI621
aI622
aI624
aI625
aI626
aI628
aI631
aI633
aI634
aI636
aI637
aI638
aI639
aI641
aI643
aI654
aI657
aI666
aI677
aI680
aI681
aI682
aI684
aI685
aI686
aI688
aI699
aI710
aI725
aI737
aI738
aI741
aI743
aI747
aI750
aI752
aI754
aI756
aI757
aI760
aI763
aI765
aI766
aI767
aI769
aI770
aI772
aI774
aI788
aI790
aI796
aI801
aI803
aI810
aI811
aI812
aI814
aI831
aI836
aI842
aI843
aI844
aI845
aI846
aI847
aI848
aI850
aI851
aI854
aI856
aI857
aI858
aI862
aI867
aI868
aI870
aI871
aI873
aI874
aI876
aI877
aI878
aI879
aI880
aI881
aI882
aI883
aI884
aI885
aI886
aI888
aI889
aI891
aI892
aI893
aI896
aI897
aI910
aI913
aI914
aI916
aI931
aI937
aI938
aI939
aI941
aI946
aI948
aI949
aI950
aI953
aI955
aI958
aI960
aI965
aI966
aI968
aI969
aI973
aI974
aI975
aI976
aI982
aI983
aI985
aI1003
aI1015
aI1016
aI1019
aI1021
aI1024
aI1025
aI1028
aI1029
aI1031
aI1036
aI1037
aI1039
aI1040
aI1041
aI1042
aI1043
aI1045
aI1051
aI1052
aI1054
aI1056
aI1060
aI1061
aI1062
aI1063
aI1065
aI1068
aI1071
aI1077
aI1080
aI1081
aI1082
aI1084
aI1092
aI1094
aI1095
aI1097
aI1100
aI1104
aI1106
aI1108
aI1112
aI1113
aI1115
aI1122
aI1125
aI1128
aI1131
aI1136
aI1139
aI1142
aI1145
aI1148
aI1151
aI1155
aI1162
aI1167
aI1177
aI1187
aI1190
aI1197
aI1200
aI1203
aI1208
aI1210
aI1212
aI1213
aI1214
aI1216
aI1217
aI1219
aI1220
aI1222
aI1225
aI1228
aI1231
aI1234
aI1235
aI1236
aI1237
aI1238
aI1241
aI1243
aI1245
aI1246
aI1247
aI1249
aI1250
aI1252
aI1253
aI1256
aI1257
aI1258
aI1259
aI1262
aI1263
aI1266
aI1267
aI1268
aI1270
aI1271
aI1273
aI1275
aI1276
aI1278
aI1279
aI1281
aI1283
aI1288
aI1298
aI1299
aI1301
aI1307
aI1313
aI1314
aI1315
aI1316
aI1318
aI1323
aI1334
aI1335
aI1336
aI1338
aI1339
aI1340
aI1341
aI1342
aI1344
aI1346
aI1347
aI1348
aI1349
aI1350
aI1351
aI1352
aI1353
aI1357
aI1359
aI1361
aI1363
aI1364
aI1366
aI1370
aI1372
aI1374
aI1377
aI1398
aI1401
aI1402
aI1403
aI1405
aI1423
aI1436
aI1449
aI1462
aI1472
aI1473
aI1475
aI1476
aI1477
aI1478
aI1480
aI1481
aI1482
aI1484
aI1485
aI1486
aI1489
aI1491
aI1492
aI1493
aI1499
aI1500
aI1503
aI1507
aI1509
aI1510
aI1511
aI1512
aI1513
aI1515
aI1524
aI1525
aI1526
aI1527
aI1528
aI1529
aI1531
aI1532
aI1533
aI1536
aI1537
aI1538
aI1539
aI1541
aI1542
aI1544
aI1545
aI1546
aI1547
aI1549
aI1551
aI1560
aI1569
aI1578
aI1580
aI1591
aI1592
aI1593
aI1598
aI1599
aI1600
aI1602
aI1604
aI1605
aI1607
aI1613
aI1614
aI1627
aI1628
aI1629
aI1631
aI1632
aI1634
aI1635
aI1636
aI1637
aI1638
aI1640
asS'/afs/cern.ch/user/a/aalvarez/Source/fts3-rest/src/fts3rest/fts3rest/config/routing.py'
p234
(lp235
I6
aI7
aI10
aI12
aI13
aI14
aI15
aI19
aI20
aI23
aI26
aI29
aI30
aI31
aI32
aI33
aI34
aI35
aI36
aI37
aI38
aI41
aI42
aI43
aI44
aI45
aI46
aI47
aI48
aI49
aI50
aI51
aI52
aI55
aI56
aI57
aI58
aI59
aI60
aI61
aI62
aI63
aI66
aI67
aI68
aI71
aI74
aI75
aI76
aI79
aI80
aI82
asS'/usr/lib/python2.6/site-packages/beaker/util.py'
p236
(lp237
I1
aI2
aI3
aI4
aI9
aI10
aI11
aI12
aI13
aI14
aI16
aI17
aI20
aI21
aI25
aI27
aI28
aI76
aI77
aI102
aI103
aI106
aI120
aI121
aI124
aI125
aI128
aI129
aI131
aI132
aI134
aI137
aI140
aI143
aI146
aI161
aI162
aI163
aI164
aI166
aI175
aI188
aI192
aI195
aI197
aI199
aI201
aI203
aI207
aI208
aI209
aI210
aI213
aI214
aI234
aI235
aI254
aI257
aI258
aI259
aI260
aI261
aI264
aI266
aI268
aI270
aI271
aI273
aI275
aI276
aI277
aI278
aI280
aI282
aI283
aI285
aI287
aI290
aI292
aI294
aI296
aI297
aI299
aI301
aI304
aI307
aI311
aI312
aI313
aI316
aI317
aI318
aI319
aI320
aI321
aI324
aI325
aI328
aI329
aI345
aI347
asS'/usr/lib/python2.6/site-packages/pygments/filters/__init__.py'
p238
(lp239
I11
aI12
aI13
aI17
aI18
aI20
aI21
aI23
aI26
aI38
aI50
aI61
aI73
aI82
aI84
aI92
aI105
aI118
aI120
aI125
aI133
aI156
aI158
aI167
aI175
aI176
aI178
aI189
aI191
aI201
aI208
aI237
aI239
aI254
aI286
aI287
aI288
aI289
aI290
aI291
asS'/usr/lib/python2.6/site-packages/pygments/lexers/__init__.py'
p240
(lp241
I10
aI11
aI12
aI13
aI14
aI16
aI17
aI21
aI22
aI23
aI26
aI27
aI29
aI32
aI36
aI37
aI38
aI39
aI42
aI53
aI70
aI87
aI127
aI142
aI154
aI197
aI213
aI214
aI216
aI217
aI218
aI219
aI220
aI221
aI222
aI226
aI227
aI228
aI229
aI230
aI231
asS'/usr/lib/python2.6/site-packages/paste/httpheaders.py'
p242
(lp243
I136
aI137
aI138
aI139
aI140
aI141
aI142
aI144
aI145
aI147
aI153
aI154
aI156
aI158
aI160
aI161
aI162
aI163
aI164
aI165
aI167
aI168
aI169
aI171
aI173
aI263
aI268
aI269
aI270
aI271
aI273
aI285
aI296
aI311
aI319
aI320
aI331
aI332
aI333
aI334
aI335
aI336
aI337
aI338
aI339
aI340
aI341
aI342
aI343
aI344
aI345
aI347
aI350
aI364
aI368
aI415
aI433
aI449
aI481
aI487
aI494
aI495
aI497
aI504
aI506
aI512
aI519
aI527
aI529
aI534
aI540
aI548
aI549
aI551
aI553
aI564
aI593
aI605
aI607
aI614
aI631
aI701
aI704
aI705
aI706
aI707
aI708
aI710
aI711
aI712
aI742
aI746
aI754
aI756
aI761
aI762
aI763
aI766
aI767
aI768
aI769
aI771
aI785
aI787
aI792
aI793
aI794
aI796
aI798
aI832
aI834
aI849
aI853
aI864
aI866
aI869
aI870
aI872
aI880
aI888
aI890
aI903
aI905
aI938
aI940
aI943
aI945
aI972
aI974
aI977
aI978
aI982
aI984
aI987
aI988
aI993
aI995
aI998
aI999
aI1000
aI1024
aI1031
aI1032
aI1033
aI1034
aI1037
aI1038
aI1041
aI1042
aI1043
aI1045
aI1047
aI1048
aI1051
aI1052
aI1053
aI1054
aI1055
aI1056
aI1057
aI1059
aI1060
aI1061
aI1062
aI1063
aI1064
aI1065
aI1066
aI1067
aI1069
aI1070
aI1071
aI1072
aI1073
aI1074
aI1075
aI1076
aI1077
aI1078
aI1079
aI1080
aI1081
aI1082
aI1083
aI1084
aI1085
aI1086
aI1087
aI1089
aI1090
aI1091
aI1092
aI1094
aI1095
aI1096
aI1097
asS'/usr/lib/python2.6/site-packages/sqlalchemy/sql/compiler.py'
p244
(lp245
I136
aI137
aI141
aI173
aI176
aI179
aI183
aI186
aI191
aI194
aI195
aI196
aI198
aI201
aI203
aI207
aI211
aI214
aI217
aI225
aI226
aI227
aI228
aI229
aI230
aI231
aI232
aI234
aI237
aI238
aI240
aI241
aI242
aI243
aI245
aI246
aI259
aI265
aI266
aI267
aI269
aI270
aI273
aI274
aI279
aI280
aI281
aI283
aI286
aI289
aI291
aI294
aI297
aI298
aI299
aI300
aI302
aI343
aI344
aI346
aI347
aI349
aI350
aI351
aI417
aI418
aI421
aI424
aI427
aI428
aI432
aI433
aI436
aI439
aI440
aI441
aI443
aI445
aI448
aI449
aI451
aI453
aI458
aI459
aI460
aI466
aI467
aI468
aI469
aI472
aI473
aI474
aI479
aI480
aI481
aI483
aI484
aI491
aI494
aI495
aI512
aI514
aI516
aI518
aI525
aI527
aI528
aI530
aI533
aI534
aI535
aI539
aI541
aI544
aI545
aI547
aI548
aI550
aI551
aI552
aI556
aI557
aI558
aI559
aI561
aI566
aI571
aI573
aI574
aI575
aI578
aI580
aI581
aI583
aI588
aI614
aI615
aI618
aI624
aI630
aI631
aI632
aI634
aI635
aI637
aI640
aI644
aI645
aI646
aI647
aI648
aI651
aI653
aI654
aI656
aI657
aI658
aI659
aI660
aI661
aI664
aI665
aI667
aI669
aI677
aI678
aI679
aI680
aI682
aI683
aI687
aI692
aI695
aI696
aI698
aI699
aI700
aI703
aI704
aI705
aI706
aI707
aI708
aI712
aI713
aI714
aI715
aI723
aI724
aI730
aI731
aI732
aI735
aI741
aI742
aI749
aI752
aI754
aI757
aI758
aI760
aI762
aI763
aI765
aI767
aI779
aI809
aI810
aI811
aI812
aI813
aI819
aI820
aI822
aI825
aI828
aI829
aI830
aI831
aI832
aI837
aI840
aI841
aI842
aI844
aI845
aI846
aI847
aI848
aI849
aI852
aI853
aI854
aI855
aI856
aI857
aI858
aI859
aI864
aI865
aI866
aI867
aI869
aI870
aI872
aI873
aI876
aI880
aI883
aI889
aI910
aI912
aI913
aI915
aI916
aI917
aI918
aI921
aI923
aI924
aI932
aI933
aI936
aI937
aI938
aI939
aI940
aI941
aI942
aI944
aI946
aI948
aI959
aI964
aI985
aI986
aI987
aI988
aI989
aI992
aI995
aI996
aI997
aI1000
aI1001
aI1004
aI1005
aI1007
aI1020
aI1023
aI1024
aI1025
aI1027
aI1028
aI1030
aI1057
aI1058
aI1059
aI1060
aI1061
aI1070
aI1088
aI1092
aI1093
aI1094
aI1095
aI1096
aI1107
aI1108
aI1109
aI1111
aI1114
aI1115
aI1128
aI1131
aI1142
aI1143
aI1144
aI1145
aI1147
aI1152
aI1153
aI1154
aI1155
aI1158
asS'/usr/lib/python2.6/site-packages/beaker/ext/memcached.py'
p246
(lp247
I1
aI2
aI3
aI4
aI6
aI7
aI8
aI9
aI10
aI11
aI12
asS'/usr/lib/python2.6/site-packages/sqlalchemy/sql/operators.py'
p248
(lp249
I49
aI83
aI125
aI126
asS'/usr/lib/python2.6/site-packages/requests/auth.py'
p250
(lp251
I8
aI10
aI11
aI12
aI13
aI15
aI17
aI18
aI21
aI23
aI24
aI27
aI33
aI34
aI36
aI39
aI40
aI41
aI45
aI50
aI51
aI52
aI57
aI58
aI59
aI66
aI140
aI163
asS'/usr/lib/python2.6/site-packages/sqlalchemy/pool.py'
p252
(lp253
I102
aI103
aI104
aI105
aI106
aI107
aI108
aI109
aI110
aI111
aI112
aI114
aI122
aI141
aI144
aI145
aI148
aI149
aI151
aI152
aI153
aI156
aI157
aI158
aI161
aI197
aI198
aI199
aI200
aI228
aI234
aI244
aI259
aI260
aI261
aI262
aI264
aI272
aI274
aI275
aI276
aI277
aI279
aI286
aI287
aI288
aI290
aI293
aI301
aI302
aI303
aI304
aI305
aI306
aI311
aI353
aI354
aI355
aI361
aI364
aI366
aI368
aI369
aI413
aI414
aI415
aI418
aI419
aI420
aI426
aI427
aI428
aI434
aI435
aI447
aI467
aI468
aI469
aI470
aI471
aI513
aI516
aI517
aI518
aI519
aI520
aI521
aI522
aI523
aI524
aI525
aI527
asS'/usr/lib/python2.6/site-packages/pylons/wsgiapp.py'
p254
(lp255
I8
aI9
aI10
aI12
aI13
aI14
aI16
aI17
aI18
aI19
aI20
aI21
aI24
aI26
aI28
aI46
aI47
aI55
aI56
aI57
aI58
aI59
aI60
aI61
aI62
aI63
aI64
aI65
aI68
aI71
aI75
aI76
aI77
aI78
aI79
aI80
aI81
aI91
aI92
aI94
aI114
aI116
aI117
aI118
aI119
aI124
aI125
aI127
aI128
aI131
aI132
aI138
aI139
aI147
aI148
aI150
aI159
aI161
aI162
aI163
aI165
aI166
aI167
aI169
aI170
aI172
aI173
aI174
aI175
aI176
aI179
aI180
aI182
aI190
aI195
aI196
aI197
aI198
aI199
aI201
aI202
aI203
aI204
aI207
aI208
aI209
aI210
aI211
aI212
aI214
aI215
aI217
aI219
aI222
aI223
aI225
aI228
aI229
aI231
aI232
aI233
aI234
aI238
aI239
aI241
aI252
aI253
aI254
aI256
aI257
aI258
aI261
aI263
aI265
aI274
aI275
aI279
aI282
aI284
aI285
aI289
aI290
aI291
aI294
aI295
aI296
aI298
aI305
aI306
aI312
aI313
aI315
aI316
aI319
aI322
aI324
aI326
aI328
aI330
aI331
aI332
aI333
aI334
aI335
aI336
aI337
aI338
aI339
aI340
asS'/usr/lib/python2.6/site-packages/pygments/lexer.py'
p256
(lp257
I10
aI11
aI13
aI14
aI18
aI19
aI20
aI21
aI25
aI26
aI29
aI32
aI36
aI38
aI39
aI40
aI41
aI44
aI62
aI65
aI68
aI71
aI74
aI77
aI79
aI81
aI92
aI99
aI107
aI121
aI169
aI178
aI186
aI188
aI194
aI217
aI220
aI221
aI224
aI227
aI229
aI230
aI232
aI234
aI237
aI240
aI242
aI246
aI249
aI252
aI257
aI260
aI264
aI268
aI285
aI288
aI292
aI293
aI296
aI309
aI310
aI317
aI333
aI343
aI346
aI350
aI352
aI416
aI423
aI436
aI441
aI442
aI446
aI465
aI467
aI521
aI524
aI526
aI532
aI537
aI540
aI542
aI599
asS'/usr/lib/python2.6/site-packages/pylons/i18n/translation.py'
p258
(lp259
I152
aI153
asS'/usr/lib/python2.6/site-packages/pygments/plugin.py'
p260
(lp261
I37
aI38
aI39
aI43
aI44
aI45
aI46
aI49
aI56
aI63
aI70
asS'/usr/lib/python2.6/site-packages/webtest/__init__.py'
p262
(lp263
I7
aI9
aI10
aI11
aI12
aI13
aI14
aI15
aI16
aI17
aI18
aI19
aI22
aI23
aI24
aI26
aI28
aI36
aI37
aI39
aI40
aI47
aI48
aI50
aI53
aI55
aI71
aI76
aI77
aI78
aI79
aI80
aI81
aI83
aI88
aI90
aI91
aI92
aI93
aI95
aI97
aI98
aI99
aI101
aI102
aI132
aI134
aI135
aI136
aI137
aI138
aI141
aI142
aI143
aI144
aI145
aI147
aI148
aI149
aI150
aI152
aI153
aI155
aI156
aI157
aI161
aI163
aI165
aI167
aI172
aI173
aI174
aI177
aI178
aI179
aI180
aI181
aI182
aI183
aI184
aI185
aI187
aI188
aI190
aI191
aI192
aI204
aI205
aI206
aI207
aI208
aI210
aI211
aI212
aI222
aI223
aI224
aI225
aI226
aI228
aI229
aI235
aI236
aI237
aI239
aI268
aI287
aI293
aI294
aI295
aI296
aI301
aI302
aI303
aI304
aI305
aI306
aI307
aI308
aI310
aI311
aI313
aI314
aI315
aI316
aI318
aI319
aI320
aI321
aI322
aI327
aI328
aI329
aI330
aI331
aI332
aI341
aI343
aI344
aI345
aI347
aI354
aI361
aI362
aI363
aI365
aI366
aI367
aI371
aI373
aI374
aI375
aI377
aI378
aI379
aI381
aI384
aI388
aI389
aI391
aI395
aI397
aI400
aI409
aI413
aI415
aI426
aI431
aI433
aI435
aI461
aI476
aI477
aI526
aI527
aI544
aI633
aI657
aI659
aI661
aI667
aI670
aI672
aI678
aI679
aI681
aI683
aI702
aI734
aI746
aI750
aI770
aI791
aI793
aI819
aI821
aI852
aI854
aI874
aI876
aI889
aI892
aI893
aI899
aI921
aI926
aI928
aI934
aI998
aI1017
aI1039
aI1051
aI1064
aI1081
aI1090
aI1102
aI1126
aI1128
aI1137
aI1141
aI1144
aI1146
aI1149
aI1158
aI1165
aI1172
aI1175
aI1177
aI1178
aI1180
aI1184
aI1186
aI1194
aI1197
aI1210
aI1225
aI1227
aI1229
aI1233
aI1235
aI1242
aI1246
aI1260
aI1275
aI1277
aI1279
aI1283
aI1285
aI1295
aI1298
aI1300
aI1304
aI1306
aI1310
aI1313
aI1322
aI1324
aI1326
aI1329
aI1331
aI1337
aI1339
aI1342
aI1345
aI1348
aI1354
aI1356
aI1359
aI1361
aI1363
aI1366
aI1368
aI1370
aI1373
aI1375
aI1377
aI1380
aI1382
aI1385
aI1387
aI1389
aI1395
aI1403
aI1428
aI1440
asS'/usr/lib/python2.6/site-packages/sqlalchemy/orm/dependency.py'
p264
(lp265
I13
aI15
aI16
aI17
aI18
aI21
aI22
aI23
aI24
aI25
aI27
aI29
aI30
aI32
aI33
aI34
aI35
aI36
aI37
aI38
aI39
aI40
aI41
aI42
aI43
aI44
aI45
aI49
aI56
aI64
aI73
aI82
aI95
aI106
aI115
aI127
aI135
aI147
aI156
aI177
aI180
aI183
aI184
aI185
aI189
aI191
aI192
aI195
aI197
aI198
aI203
aI204
aI217
aI218
aI219
aI220
aI225
aI229
aI233
aI234
aI253
aI254
aI255
aI256
aI259
aI268
aI276
aI287
aI288
aI290
aI292
aI294
aI296
aI297
aI299
aI300
aI302
aI305
aI308
aI313
aI314
aI316
aI317
aI318
aI333
aI334
aI336
aI337
aI338
aI339
aI341
aI342
aI346
aI348
aI349
aI352
aI354
aI355
aI356
aI365
aI366
aI367
aI372
aI373
aI375
aI392
aI393
aI394
aI406
aI416
aI417
aI427
aI430
aI502
aI514
aI522
aI525
aI533
aI535
aI536
aI537
aI538
aI539
aI541
aI544
aI547
aI550
aI553
aI556
asS'/afs/cern.ch/user/a/aalvarez/Source/fts3-rest/src/fts3rest/fts3rest/controllers/__init__.py'
p266
(lp267
I1
asS'/afs/cern.ch/user/a/aalvarez/Source/fts3-rest/src/fts3rest/fts3rest/tests/functional/test_staging.py'
p268
(lp269
I1
aI3
aI4
aI5
aI8
aI12
aI14
aI18
aI19
aI21
aI22
aI23
aI24
aI25
aI26
aI27
aI28
aI30
aI31
aI32
aI33
aI34
aI38
aI39
aI40
aI41
aI44
aI45
aI47
aI48
aI49
aI51
aI53
aI57
aI58
aI60
aI61
aI62
aI63
aI64
aI65
aI66
aI67
aI69
aI70
aI71
aI72
aI76
aI77
aI78
aI79
aI82
aI83
aI85
aI86
aI87
aI89
aI91
aI95
aI96
aI98
aI99
aI100
aI101
aI102
aI103
aI104
aI105
aI107
aI108
aI109
aI110
aI114
aI115
aI116
aI117
aI120
aI121
aI123
aI124
aI125
aI127
asS'/usr/lib/python2.6/site-packages/pygments/formatters/other.py'
p270
(lp271
I10
aI12
aI13
aI14
aI15
aI17
aI20
aI23
aI24
aI25
aI26
aI28
aI37
aI55
aI56
aI57
aI58
aI60
aI62
aI80
asS'/afs/cern.ch/user/a/aalvarez/Source/fts3-rest/src/fts3rest/fts3rest/lib/middleware/fts3auth/authorization.py'
p272
(lp273
I1
aI2
aI3
aI4
aI7
aI21
aI22
aI24
aI27
aI28
aI30
aI31
aI32
aI33
aI34
aI37
aI40
aI50
aI51
aI53
aI54
aI55
aI56
aI57
asS'/usr/lib/python2.6/site-packages/pygments/formatters/terminal256.py'
p274
(lp275
I16
aI27
aI30
aI33
aI34
aI40
aI45
aI57
aI67
aI84
aI85
aI86
aI87
aI89
aI102
aI138
aI155
aI170
aI184
aI192
asS'/usr/lib/python2.6/site-packages/weberror/formatter.py'
p276
(lp277
I6
aI10
aI11
aI12
aI13
aI14
aI15
aI16
aI18
aI20
aI21
aI25
aI28
aI30
aI31
aI51
aI53
aI55
aI56
aI63
aI133
aI177
aI183
aI189
aI202
aI215
aI217
aI221
aI223
aI225
aI227
aI229
aI234
aI236
aI238
aI240
aI243
aI245
aI247
aI250
aI253
aI260
aI263
aI290
aI292
aI298
aI300
aI302
aI304
aI312
aI318
aI327
aI329
aI331
aI334
aI337
aI353
aI371
aI394
aI404
aI425
aI435
aI436
aI503
aI510
aI516
aI526
aI557
aI561
aI565
aI566
aI567
aI569
aI570
aI587
aI588
aI626
aI636
aI637
aI661
aI662
aI679
asS'/usr/lib/python2.6/site-packages/pygments/formatters/__init__.py'
p278
(lp279
I10
aI11
aI12
aI14
aI15
aI16
aI18
aI19
aI20
aI21
aI23
aI24
aI27
aI28
aI30
aI40
aI46
aI54
aI63
asS'/usr/lib/python2.6/site-packages/paste/script/appinstall.py'
p280
(lp281
I47
aI48
aI49
aI50
aI54
aI58
aI66
aI67
aI68
aI108
aI109
aI110
aI111
aI116
aI117
aI118
aI123
aI131
aI132
aI138
aI139
aI142
aI143
aI161
aI162
aI180
aI181
aI188
aI189
aI190
aI191
aI192
aI193
aI194
aI233
aI234
aI235
aI236
aI237
aI428
aI429
aI430
aI431
aI434
aI435
aI436
aI437
aI440
aI441
aI442
aI444
aI445
aI446
aI447
aI448
aI449
aI450
aI451
aI454
aI455
aI456
aI457
aI458
aI494
aI495
aI496
aI583
aI584
aI585
aI586
aI589
aI590
aI591
aI592
aI594
aI595
aI596
aI597
aI598
aI606
aI607
aI608
aI609
aI610
aI611
aI612
asS'/usr/lib/python2.6/site-packages/pygments/formatters/bbcode.py'
p282
(lp283
I10
aI13
aI14
aI16
aI19
aI47
aI48
aI49
aI50
aI52
aI60
aI79
asS'/usr/lib/python2.6/site-packages/webhelpers/mimehelper.py'
p284
(lp285
I26
asS'/usr/lib/python2.6/site-packages/decorator.py'
p286
(lp287
I43
aI45
aI46
aI48
aI49
aI50
aI51
aI52
aI53
aI54
aI55
aI57
aI59
aI61
aI63
aI65
aI68
aI69
aI74
aI75
aI76
aI77
aI78
aI79
aI80
aI84
aI85
aI86
aI87
aI89
aI90
aI91
aI92
aI93
aI95
aI96
aI97
aI98
aI99
aI104
aI105
aI107
aI108
aI115
aI116
aI117
aI118
aI119
aI120
aI121
aI123
aI125
aI126
asS'/usr/lib/python2.6/site-packages/pygments/formatters/rtf.py'
p288
(lp289
I10
aI12
aI15
aI18
aI35
aI36
aI37
aI38
aI40
aI42
aI56
aI61
aI87
asS'/afs/cern.ch/user/a/aalvarez/Source/fts3-rest/src/fts3rest/fts3rest/lib/middleware/fts3auth/fts3authmiddleware.py'
p290
(lp291
I1
aI2
aI3
aI4
aI7
aI11
aI13
aI14
aI15
aI17
aI18
aI20
aI21
aI23
aI26
aI29
aI31
aI33
aI34
aI35
aI41
aI42
aI43
asS'/usr/lib/python2.6/site-packages/sqlalchemy/sql/visitors.py'
p292
(lp293
I37
aI41
aI46
aI47
aI48
aI49
aI50
aI55
aI57
aI76
aI77
aI78
aI79
aI89
aI93
aI95
aI96
aI97
aI98
aI104
aI105
aI106
aI107
aI153
aI154
aI155
aI156
aI157
aI158
aI166
aI167
aI168
aI169
aI170
aI171
aI191
aI192
aI193
aI194
aI195
aI200
aI210
aI212
aI213
aI214
aI215
aI217
aI218
aI220
aI221
aI222
aI223
aI224
aI226
aI227
aI228
aI230
aI231
aI232
aI237
aI238
aI240
aI241
aI242
aI243
aI244
aI246
aI247
aI248
aI250
aI251
aI252
aI253
aI254
aI255
aI256
aI257
aI258
aI259
asS'/usr/lib/python2.6/site-packages/urllib3/filepost.py'
p294
(lp295
I7
aI8
aI10
aI11
aI13
aI14
aI15
aI20
aI23
aI30
aI34
aI46
asS'/afs/cern.ch/user/a/aalvarez/Source/fts3-rest/src/fts3rest/fts3rest/tests/functional/test_job_cancel.py'
p296
(lp297
I1
aI3
aI4
aI5
aI8
aI11
aI13
aI17
aI18
aI20
aI21
aI22
aI23
aI24
aI25
aI26
aI27
aI28
aI31
aI32
aI33
aI36
aI37
aI38
aI41
aI42
aI44
aI48
aI49
aI50
aI51
aI53
aI54
aI55
aI58
aI59
aI60
aI61
aI63
aI67
aI69
aI70
aI71
aI72
aI73
aI74
aI76
aI77
aI78
aI80
aI81
aI82
aI85
aI86
aI87
aI88
aI90
aI94
aI96
aI97
aI98
aI99
aI100
aI101
aI102
aI104
aI105
aI106
aI108
aI109
aI110
aI113
aI114
aI115
aI116
aI117
aI118
aI120
asS'/afs/cern.ch/user/a/aalvarez/Source/fts3-rest/src/fts3rest/fts3rest/lib/base.py'
p298
(lp299
I4
aI5
aI6
aI8
aI11
aI13
aI18
aI19
aI21
asS'/usr/lib/python2.6/site-packages/requests/status_codes.py'
p300
(lp301
I3
aI5
aI8
aI9
aI10
aI11
aI12
aI13
aI14
aI15
aI16
aI17
aI18
aI19
aI20
aI21
aI24
aI25
aI26
aI27
aI28
aI29
aI30
aI31
aI32
aI35
aI36
aI37
aI38
aI39
aI40
aI41
aI42
aI43
aI44
aI45
aI46
aI47
aI48
aI49
aI50
aI51
aI52
aI53
aI54
aI55
aI56
aI57
aI58
aI59
aI60
aI61
aI62
aI63
aI64
aI65
aI68
aI69
aI70
aI71
aI72
aI73
aI74
aI75
aI76
aI77
aI80
aI82
aI83
aI84
aI85
aI86
asS'/afs/cern.ch/user/a/aalvarez/Source/fts3-rest/src/fts3rest/fts3rest/lib/middleware/fts3auth/credentials.py'
p302
(lp303
I1
aI2
aI3
aI6
aI15
aI16
aI17
aI18
aI19
aI20
aI21
aI24
aI36
aI37
aI39
aI40
aI42
aI44
aI47
aI50
aI52
aI61
aI62
aI63
aI64
aI65
aI68
aI69
aI70
aI71
aI73
aI74
aI75
aI76
aI77
aI78
aI79
aI80
aI82
aI83
aI86
aI87
aI90
aI91
aI94
aI95
aI98
aI99
aI102
aI105
aI107
aI111
aI112
aI113
aI114
aI115
aI117
aI119
aI124
aI125
aI127
aI128
aI132
aI133
aI134
aI135
aI137
aI150
aI151
aI152
aI155
aI157
aI167
asS'/usr/lib/python2.6/site-packages/requests/utils.py'
p304
(lp305
I10
aI12
aI13
aI14
aI15
aI16
aI17
aI18
aI19
aI21
aI22
aI23
aI24
aI25
aI27
aI29
aI33
aI35
aI43
aI51
aI87
aI94
aI117
aI143
aI174
aI208
aI232
aI246
aI259
aI270
aI290
aI308
aI316
aI349
aI381
aI392
aI393
aI394
aI397
aI415
aI427
aI462
aI496
aI504
aI539
aI540
aI541
aI544
aI573
asS'/usr/lib/python2.6/site-packages/jsonschema/_validators.py'
p306
(lp307
I1
aI3
aI4
aI5
aI8
aI11
aI24
aI25
aI28
aI30
aI31
aI32
aI39
aI40
aI41
aI43
aI44
aI45
aI46
aI55
aI75
aI76
aI79
aI80
aI84
aI85
aI87
aI93
aI111
aI125
aI126
aI130
aI135
aI137
aI138
aI139
aI144
aI152
aI160
aI165
aI170
aI171
aI174
aI175
aI176
aI192
aI193
aI194
aI197
aI198
aI199
aI200
aI203
aI224
aI250
aI258
aI268
aI269
aI271
aI272
aI275
aI276
aI279
aI280
aI281
aI282
aI283
aI284
aI285
aI287
aI290
aI291
aI293
aI294
aI298
aI305
aI312
aI313
aI314
aI318
aI342
aI343
aI344
aI345
aI346
aI347
aI348
aI356
asS'/usr/lib/python2.6/site-packages/pygments/styles/default.py'
p308
(lp309
I10
aI12
aI13
aI17
aI20
aI22
aI23
aI25
aI26
aI27
aI28
aI31
aI32
aI33
aI35
aI36
aI38
aI39
aI40
aI41
aI42
aI43
aI44
aI45
aI46
aI47
aI48
aI49
aI51
aI52
aI53
aI54
aI55
aI57
aI58
aI59
aI61
aI62
aI63
aI64
aI65
aI66
aI67
aI68
aI69
aI70
aI72
asS'/usr/lib/python2.6/site-packages/nose/plugins/capture.py'
p310
(lp311
I49
aI50
aI56
aI59
aI60
aI61
aI65
aI66
aI67
aI70
aI73
aI74
aI77
aI78
aI79
aI82
aI83
aI90
aI91
asS'/afs/cern.ch/user/a/aalvarez/Source/fts3-rest/src/fts3rest/fts3rest/lib/middleware/fts3auth/__init__.py'
p312
(lp313
I1
aI2
aI3
aI4
asS'/usr/lib/python2.6/site-packages/jsonschema/compat.py'
p314
(lp315
I1
aI2
aI3
aI5
aI6
aI10
aI12
aI22
aI23
aI26
aI27
aI28
aI29
aI30
aI34
aI35
aI36
aI38
aI41
aI42
aI43
aI44
aI46
aI47
aI48
asS'/afs/cern.ch/user/a/aalvarez/Source/fts3-rest/src/fts3rest/fts3rest/config/middleware.py'
p316
(lp317
I1
aI2
aI3
aI4
aI5
aI6
aI7
aI8
aI9
aI11
aI12
aI13
aI14
aI17
aI41
aI44
aI47
aI48
aI51
aI54
aI57
aI60
aI62
aI65
aI67
aI71
aI72
asS'/afs/cern.ch/user/a/aalvarez/Source/fts3-rest/src/fts3rest/fts3rest/model/__init__.py'
p318
(lp319
I1
aI2
aI5
aI7
asS'/afs/cern.ch/user/a/aalvarez/Source/fts3-rest/src/fts3rest/fts3rest/tests/functional/test_job_listing.py'
p320
(lp321
I1
aI3
aI4
aI6
aI7
aI9
aI10
aI11
aI12
aI13
aI14
aI15
aI16
aI17
aI18
aI19
aI20
aI21
aI22
aI24
aI25
aI26
aI27
aI29
aI30
aI31
aI32
aI33
aI34
aI37
aI38
aI39
aI40
aI41
aI42
aI43
aI44
aI45
aI46
aI47
aI48
aI51
aI52
aI53
aI54
aI55
aI56
aI57
aI58
aI59
aI60
aI61
aI62
aI63
aI65
aI66
aI67
aI68
aI69
aI70
aI71
aI72
aI73
aI74
aI75
aI76
aI77
aI78
aI79
aI82
aI83
aI84
aI85
aI86
aI87
aI88
aI89
aI90
aI91
aI92
aI93
aI94
aI95
aI96
aI97
aI99
aI100
aI101
aI103
aI104
aI105
aI106
aI107
aI108
aI109
aI110
aI111
aI112
aI113
aI114
aI115
aI116
aI117
aI118
aI119
aI120
aI121
aI122
aI123
aI124
aI125
aI126
aI127
aI128
aI129
aI130
aI131
aI132
aI133
aI134
aI135
aI136
aI137
aI138
aI139
aI140
aI141
aI142
aI143
aI144
aI145
aI146
aI147
aI148
aI149
aI150
aI151
aI152
aI153
aI154
aI156
aI157
aI158
aI159
aI160
aI161
aI162
aI163
aI164
aI165
aI166
aI167
aI168
aI169
aI170
aI171
aI173
aI174
aI175
aI176
aI177
aI179
aI180
aI181
aI182
aI183
aI184
aI185
aI186
aI187
aI188
aI189
aI190
aI191
aI192
aI193
aI194
aI195
aI196
aI200
aI201
aI202
aI203
aI204
aI205
aI206
aI207
aI208
aI209
aI210
aI212
aI214
aI215
aI216
aI217
aI218
aI219
aI220
aI221
aI222
aI223
aI224
aI225
aI226
aI227
aI229
aI230
aI231
aI232
aI233
aI234
aI235
aI236
aI237
aI238
aI239
aI240
aI241
aI242
aI243
aI244
aI247
aI248
aI249
aI250
aI251
aI252
aI254
aI256
aI258
aI259
aI261
aI265
aI266
aI267
aI269
aI271
aI272
aI273
asS'/afs/cern.ch/user/a/aalvarez/Source/fts3-rest/src/fts3rest/fts3rest/config/environment.py'
p322
(lp323
I1
aI2
aI4
aI5
aI7
aI8
aI9
aI10
aI11
aI14
aI19
aI20
aI21
aI22
aI23
aI26
aI28
aI29
aI30
aI33
aI34
aI37
aI38
aI39
aI40
aI43
aI44
aI48
asS'/usr/lib/python2.6/site-packages/nose/selector.py'
p324
(lp325
I35
aI37
aI40
aI41
aI42
aI43
aI44
aI45
aI53
aI54
aI57
aI68
aI69
aI72
aI73
aI74
aI76
aI77
aI80
aI81
aI89
aI90
aI91
aI96
aI97
aI98
aI99
aI100
aI104
aI105
aI116
aI117
aI118
aI119
aI120
aI121
aI122
aI123
aI124
aI125
aI126
aI127
aI129
aI130
aI131
aI134
aI135
aI140
aI141
aI144
aI148
aI149
aI152
aI153
aI154
aI156
aI157
aI162
aI163
aI167
aI169
aI170
aI171
aI174
aI175
aI176
aI178
aI179
aI187
aI188
aI191
aI192
aI193
aI194
aI196
aI197
aI222
aI224
aI225
aI226
aI227
aI228
aI229
aI232
aI233
aI234
aI235
aI236
aI237
aI238
aI239
aI240
aI241
asS'/usr/lib/python2.6/site-packages/webob/headerdict.py'
p326
(lp327
I19
aI22
aI23
aI24
aI25
aI26
aI30
aI31
aI32
aI33
aI34
aI36
aI66
aI67
aI68
aI69
aI70
aI71
aI72
aI75
aI76
aI77
aI78
aI79
aI80
aI81
aI82
aI83
aI87
aI88
aI89
aI90
aI91
aI97
aI98
aI99
aI100
aI101
aI102
aI103
asS'/usr/lib/python2.6/site-packages/routes/middleware.py'
p328
(lp329
I1
aI2
aI3
aI5
aI6
aI10
aI11
aI13
aI15
aI17
aI18
aI19
aI36
aI37
aI38
aI39
aI40
aI41
aI45
aI48
aI49
aI51
aI52
aI53
aI56
aI57
aI60
aI69
aI70
aI71
aI72
aI73
aI82
aI84
aI85
aI87
aI90
aI95
aI102
aI103
aI104
aI105
aI107
aI119
aI130
aI133
aI134
aI135
aI138
aI140
aI142
aI143
aI145
aI146
asS'/afs/cern.ch/user/a/aalvarez/Source/fts3-rest/src/fts3rest/fts3rest/tests/unit/test_credentials.py'
p330
(lp331
I2
aI3
aI6
aI10
aI11
aI12
aI13
aI14
aI15
aI17
aI18
aI19
aI22
aI26
aI28
aI29
aI30
aI33
aI38
aI39
aI40
aI41
aI42
aI43
aI45
aI47
aI48
aI49
aI51
aI54
aI59
aI60
aI61
aI63
aI65
aI66
aI67
aI70
aI75
aI76
aI77
aI78
aI79
aI80
aI82
aI84
aI85
aI86
asS'/usr/lib/python2.6/site-packages/weberror/util/escaping.py'
p332
(lp333
I9
aI10
aI12
aI13
aI14
aI15
aI16
aI17
aI22
aI25
aI28
aI33
aI39
aI43
aI44
aI53
aI56
aI58
aI63
aI64
aI65
aI66
aI67
aI69
aI76
aI84
aI86
aI102
aI106
aI107
aI109
aI122
aI131
aI132
aI134
aI135
aI138
aI155
aI159
aI160
aI161
aI162
aI163
aI164
aI165
aI166
aI167
aI168
aI174
aI175
aI179
aI180
aI186
aI187
aI188
aI189
aI190
aI193
aI194
aI195
aI196
aI197
aI198
aI199
aI200
aI203
aI210
asS'/usr/lib/python2.6/site-packages/jsonschema/_format.py'
p334
(lp335
I1
aI2
aI3
aI5
aI6
aI9
aI28
aI30
aI32
aI33
aI36
aI38
aI50
aI51
aI52
aI53
aI55
aI57
aI82
aI101
aI104
aI105
aI106
aI108
aI109
aI110
aI111
aI112
aI113
aI114
aI115
aI116
aI119
aI126
aI133
aI134
aI141
aI143
aI156
aI157
aI158
aI159
aI168
aI169
aI170
aI171
aI172
aI173
aI174
aI189
aI196
aI203
aI210
aI211
aI212
aI213
aI235
aI236
asS'/usr/lib/python2.6/site-packages/requests/hooks.py'
p336
(lp337
I14
aI17
aI19
aI27
asS'/usr/lib/python2.6/site-packages/requests/certs.py'
p338
(lp339
I16
aI18
aI21
aI23
asS'/usr/lib/python2.6/site-packages/requests/api.py'
p340
(lp341
I12
aI14
aI17
aI47
aI58
aI69
aI79
aI90
aI101
aI112
asS'/usr/lib/python2.6/site-packages/pygments/unistring.py'
p342
(lp343
I13
aI14
aI16
aI18
aI20
aI22
aI24
aI25
aI29
aI31
aI33
aI35
aI37
aI39
aI41
aI43
aI45
aI47
aI49
aI51
aI53
aI55
aI57
aI59
aI61
aI63
aI65
aI67
aI69
aI71
aI73
aI75
aI77
aI79
aI81
aI84
aI86
aI88
aI94
asS'/afs/cern.ch/user/a/aalvarez/Source/fts3-rest/src/fts3rest/fts3rest/lib/helpers/__init__.py'
p344
(lp345
I1
asS'/afs/cern.ch/user/a/aalvarez/Source/fts3-rest/src/fts3rest/fts3rest/lib/middleware/error_as_json.py'
p346
(lp347
I1
aI2
aI3
aI6
aI10
aI12
aI13
aI15
aI16
aI17
aI19
aI20
aI22
aI23
aI24
aI25
aI26
aI27
aI29
aI30
aI31
aI33
aI35
aI36
aI37
aI39
aI40
aI41
aI42
aI44
aI45
asS'/usr/lib/python2.6/site-packages/beaker/exceptions.py'
p348
(lp349
I1
aI3
aI4
aI7
aI8
aI10
aI11
aI14
aI15
aI18
aI19
asS'/usr/lib/python2.6/site-packages/nose/case.py'
p350
(lp351
I28
aI32
aI33
aI35
aI36
aI37
aI38
aI39
aI40
aI43
aI46
aI47
aI49
aI52
aI57
aI58
aI62
aI67
aI68
aI72
aI97
aI98
aI99
aI100
aI101
aI102
aI126
aI127
aI128
aI129
aI130
aI131
aI132
aI133
aI138
aI145
aI146
aI147
aI149
aI152
aI153
aI155
aI156
aI160
aI161
aI162
aI168
aI169
aI170
asS'/afs/cern.ch/user/a/aalvarez/Source/fts3-rest/src/fts3rest/fts3rest/lib/helpers/voms.py'
p352
(lp353
I1
aI2
aI3
aI4
aI5
aI7
aI10
aI13
aI14
aI18
aI24
aI25
aI26
aI27
aI30
aI34
aI35
aI37
aI38
aI39
aI40
aI41
aI42
aI45
aI46
aI47
aI52
aI55
aI57
aI58
aI59
aI60
aI61
aI63
aI64
aI66
aI81
aI82
aI84
aI85
aI87
aI89
aI93
aI95
aI96
aI97
aI98
aI99
aI100
aI101
aI102
aI105
aI107
aI108
aI109
aI110
aI111
aI112
aI115
asS'/afs/cern.ch/user/a/aalvarez/Source/fts3-rest/src/fts3rest/fts3rest/tests/functional/__init__.py'
p354
(lp355
I1
asS'/usr/lib/python2.6/site-packages/beaker/container.py'
p356
(lp357
I1
aI2
aI3
aI4
aI5
aI6
aI8
aI9
aI10
aI13
aI14
aI15
aI16
aI17
aI20
aI21
aI24
aI28
aI49
aI50
aI53
aI56
aI59
aI62
aI65
aI68
aI71
aI74
aI77
aI80
aI90
aI93
aI96
aI99
aI103
aI107
aI108
aI114
aI117
aI120
aI123
aI131
aI137
aI147
aI153
aI166
aI180
aI188
aI190
aI192
aI200
aI212
aI215
aI227
aI246
aI302
aI318
aI327
aI342
aI343
aI345
aI349
aI355
aI358
aI361
aI364
aI367
aI370
aI373
aI377
aI378
aI379
aI411
aI415
aI421
aI431
aI436
aI446
aI454
aI459
aI463
aI466
aI469
aI472
aI475
aI479
aI480
aI481
aI509
aI513
aI519
aI522
aI533
aI542
aI546
aI549
aI552
aI555
aI558
aI564
aI566
aI568
aI569
aI570
aI571
aI572
aI573
aI582
aI583
aI584
aI586
aI587
aI589
aI590
aI592
aI593
aI595
asS'/usr/lib/python2.6/site-packages/nose/loader.py'
p358
(lp359
I75
aI77
aI78
aI79
aI80
aI81
aI82
aI85
aI86
aI87
aI88
aI89
aI90
aI91
aI92
aI98
aI101
aI102
aI103
aI104
aI105
aI106
aI107
aI108
aI112
aI114
aI115
aI116
aI124
aI125
aI126
aI127
aI128
aI130
aI131
aI132
aI135
aI136
aI137
aI138
aI139
aI140
aI141
aI142
aI144
aI145
aI148
aI150
aI151
aI152
aI153
aI154
aI155
aI156
aI157
aI160
aI161
aI164
aI165
aI170
aI171
aI174
aI175
aI183
aI184
aI185
aI275
aI276
aI277
aI278
aI282
aI283
aI284
aI286
aI287
aI288
aI289
aI291
aI292
aI293
aI294
aI299
aI300
aI301
aI303
aI306
aI316
aI318
aI321
aI322
aI325
aI326
aI350
aI351
aI352
aI355
aI356
aI362
aI363
aI364
aI366
aI367
aI368
aI369
aI370
aI371
aI372
aI373
aI376
aI377
aI378
aI379
aI380
aI390
aI397
aI398
aI414
aI415
aI416
aI417
aI422
aI427
aI428
aI429
aI434
aI435
aI449
aI450
aI451
aI452
aI453
aI454
aI455
aI456
aI458
aI464
aI465
aI468
aI469
aI476
aI478
aI479
aI480
aI481
aI482
aI484
asS'/usr/lib/python2.6/site-packages/weberror/util/source_encoding.py'
p360
(lp361
I1
aI2
aI3
aI6
aI7
aI8
asS'/usr/lib/python2.6/site-packages/nose/suite.py'
p362
(lp363
I41
aI56
aI59
aI60
aI61
aI62
aI63
aI74
aI75
aI76
aI77
aI78
aI79
aI80
aI83
aI84
aI85
aI86
aI87
aI93
aI94
aI117
aI118
aI119
aI120
aI122
aI123
aI124
aI125
aI134
aI138
aI149
aI150
aI153
aI154
aI160
aI161
aI162
aI163
aI164
aI168
aI170
aI171
aI172
aI179
aI180
aI182
aI183
aI184
aI187
aI188
aI189
aI192
aI193
aI195
aI196
aI197
aI198
aI199
aI200
aI201
aI202
aI203
aI207
aI208
aI211
aI212
aI213
aI216
aI217
aI219
aI221
aI222
aI224
aI225
aI233
aI234
aI235
aI236
aI237
aI238
aI239
aI240
aI241
aI247
aI248
aI249
aI250
aI251
aI252
aI255
aI256
aI257
aI258
aI259
aI260
aI261
aI266
aI267
aI268
aI269
aI271
aI274
aI275
aI277
aI278
aI279
aI283
aI284
aI285
aI305
aI307
aI308
aI312
aI313
aI314
aI315
aI316
aI317
aI318
aI329
aI330
aI331
aI332
aI333
aI334
aI335
aI336
aI337
aI338
aI346
aI347
aI349
aI350
aI351
aI352
aI355
aI356
aI357
aI358
aI361
aI363
aI364
aI366
aI367
aI368
aI369
aI370
aI371
aI372
aI373
aI374
aI375
aI378
aI379
aI380
aI381
aI382
aI383
aI384
aI385
aI386
aI387
aI388
aI389
aI390
aI408
aI409
aI410
aI411
aI413
aI414
aI415
aI416
aI417
aI418
aI419
aI420
aI421
aI422
aI423
aI424
aI427
aI428
aI429
aI430
aI431
aI432
aI433
aI434
aI435
aI436
aI437
aI438
aI439
aI440
aI443
aI444
aI447
aI448
aI449
aI450
aI451
aI453
aI454
aI456
aI465
aI466
aI469
asS'/usr/lib/python2.6/site-packages/webob/__init__.py'
p364
(lp365
I114
aI116
aI122
aI162
aI164
aI167
aI170
aI172
aI173
aI174
aI176
aI179
aI182
aI184
aI238
aI240
aI241
aI244
aI245
aI248
aI429
aI431
aI442
aI443
aI444
aI517
aI520
aI522
aI523
aI524
aI525
aI526
aI527
aI528
aI529
aI530
aI540
aI543
aI572
aI841
aI842
aI845
aI846
aI847
aI849
aI850
aI851
aI852
aI853
aI855
aI858
aI859
aI886
aI887
aI888
aI889
aI894
aI900
aI901
aI903
aI904
aI905
aI911
aI912
aI913
aI914
aI915
aI916
aI917
aI918
aI919
aI920
aI931
aI932
aI936
aI948
aI949
aI950
aI951
aI952
aI953
aI954
aI955
aI957
aI958
aI959
aI960
aI961
aI990
aI998
aI999
aI1000
aI1001
aI1002
aI1003
aI1286
aI1287
aI1288
aI1289
aI1291
aI1292
aI1293
aI1294
aI1295
aI1302
aI1303
aI1319
aI1320
aI1321
aI1322
aI1326
aI1327
aI1328
aI1348
aI1363
aI1364
aI1365
aI1369
aI1370
aI1371
aI1372
aI1373
aI1374
aI1375
aI1376
aI1377
aI1378
aI1379
aI1380
aI1381
aI1382
aI1383
aI1384
aI1385
aI1386
aI1388
aI1411
aI1412
aI1413
aI1414
aI1416
aI1434
aI1435
aI1436
aI1437
aI1440
aI1441
aI1443
aI1444
aI1445
aI1447
aI1448
aI1449
aI1450
aI1451
aI1452
aI1457
aI1458
aI1459
aI1460
aI1461
aI1462
aI1463
aI1464
aI1469
aI1470
aI1471
aI1472
aI1474
aI1475
aI1476
aI1477
aI1480
aI1481
aI1482
aI1484
aI1489
aI1490
aI1491
aI1494
aI1495
aI1532
aI1535
aI1537
aI1541
aI1546
aI1554
aI1563
aI1627
aI1628
aI1630
aI1686
aI1687
aI1688
aI1703
aI1704
aI1707
aI1708
aI1710
aI1711
aI1712
aI1713
aI1714
aI1791
aI1797
aI1800
aI1802
aI1803
aI1804
aI2180
aI2182
aI2183
aI2186
aI2265
aI2266
aI2267
aI2270
aI2271
aI2272
aI2273
aI2274
aI2281
aI2282
aI2283
aI2322
aI2323
aI2324
asS'/usr/lib/python2.6/site-packages/paste/script/default_sysconfig.py'
p366
(lp367
I8
aI10
aI16
aI18
aI31
aI37
aI39
aI44
asS'/usr/lib/python2.6/site-packages/sqlalchemy/orm/sync.py'
p368
(lp369
I9
aI11
aI13
aI25
aI34
aI44
aI53
aI58
aI59
aI60
aI63
aI64
aI67
aI69
asS'/usr/lib/python2.6/site-packages/routes/base.py'
p370
(lp371
I1
aI2
aI3
aI4
asS'/afs/cern.ch/user/a/aalvarez/Source/fts3-rest/src/fts3rest/fts3rest/__init__.py'
p372
(lp373
I1
asS'/afs/cern.ch/user/a/aalvarez/Source/fts3-rest/src/fts3rest/fts3rest/tests/unit/__init__.py'
p374
(lp375
I1
asS'/usr/lib/python2.6/site-packages/sqlalchemy/engine/url.py'
p376
(lp377
I44
aI45
aI46
aI47
aI48
aI51
aI52
aI53
aI90
aI91
aI92
aI136
aI137
aI142
aI153
aI154
aI156
aI157
aI158
aI159
aI160
aI161
aI162
aI163
aI167
aI169
aI172
aI173
asS'/usr/lib/python2.6/site-packages/sqlalchemy/schema.py'
p378
(lp379
I52
aI53
aI54
aI63
aI72
aI73
aI85
aI86
aI94
aI95
aI96
aI97
aI98
aI99
aI100
aI106
aI107
aI108
aI109
aI112
aI113
aI204
aI205
aI206
aI207
aI208
aI209
aI210
aI211
aI212
aI213
aI214
aI217
aI219
aI220
aI221
aI223
aI225
aI226
aI227
aI230
aI232
aI237
aI245
aI248
aI249
aI250
aI251
aI256
aI257
aI262
aI263
aI266
aI269
aI270
aI279
aI280
aI284
aI288
aI291
aI298
aI300
aI301
aI304
aI324
aI358
aI359
aI362
aI363
aI364
aI366
aI367
aI564
aI565
aI566
aI567
aI568
aI569
aI572
aI573
aI574
aI577
aI578
aI580
aI583
aI586
aI588
aI589
aI590
aI591
aI592
aI593
aI594
aI595
aI596
aI597
aI598
aI599
aI600
aI601
aI602
aI603
aI605
aI607
aI628
aI629
aI630
aI632
aI638
aI639
aI641
aI642
aI643
aI644
aI645
aI647
aI649
aI651
aI655
aI656
aI659
aI663
aI665
aI666
aI669
aI671
aI672
aI674
aI675
aI676
aI683
aI685
aI692
aI702
aI703
aI704
aI707
aI708
aI713
aI715
aI721
aI722
aI739
aI740
aI741
aI742
aI743
aI744
aI745
aI746
aI747
aI748
aI749
aI750
aI751
aI752
aI753
aI754
aI757
aI759
aI761
aI822
aI823
aI824
aI825
aI826
aI827
aI828
aI829
aI830
aI833
aI841
aI843
aI844
aI856
aI865
aI871
aI876
aI877
aI878
aI879
aI885
aI887
aI901
aI902
aI905
aI906
aI908
aI911
aI915
aI916
aI918
aI919
aI926
aI932
aI933
aI935
aI941
aI944
aI947
aI949
aI952
aI954
aI956
aI963
aI964
aI965
aI966
aI967
aI968
aI969
aI971
aI972
aI980
aI981
aI984
aI985
aI986
aI989
aI1007
aI1008
aI1011
aI1013
aI1047
aI1050
aI1155
aI1156
aI1157
aI1158
aI1161
aI1167
aI1173
aI1176
aI1273
aI1274
aI1275
aI1276
aI1277
aI1278
aI1279
aI1280
aI1282
aI1285
aI1286
aI1287
aI1288
aI1297
aI1298
aI1333
aI1334
aI1335
aI1336
aI1341
aI1342
aI1356
aI1555
aI1556
aI1557
aI1558
aI1559
aI1569
aI1612
aI1618
aI1619
aI1621
aI1625
aI1782
aI1783
aI1784
aI1786
aI1787
aI1809
aI1810
aI1811
aI1813
aI1814
aI2149
aI2150
aI2168
asS'/usr/lib/python2.6/site-packages/paste/fileapp.py'
p380
(lp381
I10
aI12
aI13
aI14
aI16
aI17
aI19
aI21
aI55
aI57
aI59
aI78
aI82
aI93
aI97
aI106
aI109
aI169
aI174
aI176
aI185
aI188
aI204
aI239
aI241
aI246
aI249
aI260
aI264
aI269
aI271
aI278
aI280
aI295
aI309
aI311
aI322
aI326
asS'/usr/lib/python2.6/site-packages/nose/result.py'
p382
(lp383
I34
aI35
aI36
aI37
aI39
aI40
aI47
aI48
aI49
aI50
aI54
aI55
aI68
aI69
aI70
aI71
aI78
aI79
aI80
aI81
aI84
aI85
aI134
aI135
aI158
aI159
asS'/usr/lib/python2.6/site-packages/requests/sessions.py'
p384
(lp385
I10
aI11
aI13
aI14
aI15
aI16
aI17
aI18
aI20
aI21
aI23
aI25
aI26
aI27
aI30
aI75
aI77
aI140
aI151
aI153
aI200
aI203
aI207
aI208
aI209
aI210
aI211
aI212
aI213
aI214
aI215
aI216
aI217
aI218
aI219
aI302
aI312
aI322
aI332
aI342
aI352
aI362
aI371
aI377
aI387
aI392
aI396
aI399
aI404
asS'/afs/cern.ch/user/a/aalvarez/Source/fts3-rest/src/fts3rest/fts3rest/tests/__init__.py'
p386
(lp387
I9
aI10
aI11
aI12
aI13
aI14
aI15
aI16
aI17
aI18
aI19
aI20
aI22
aI23
aI24
aI27
aI30
aI32
aI35
aI36
aI37
aI38
aI40
aI41
aI42
aI43
aI44
aI45
aI46
aI47
aI48
aI50
aI53
aI56
aI58
aI60
aI61
aI62
aI63
aI64
aI65
aI67
aI69
aI77
aI79
aI80
aI81
aI82
aI84
aI86
aI90
aI92
aI99
aI100
aI101
aI102
aI103
aI104
aI105
aI107
aI108
aI110
aI114
aI115
aI116
aI117
aI118
aI119
aI121
aI133
aI134
aI135
aI136
aI138
aI140
aI141
aI142
aI143
aI145
aI146
aI147
aI149
aI150
aI151
aI153
aI154
aI155
aI156
aI157
aI158
aI159
aI161
aI162
aI164
aI165
aI167
aI169
aI171
aI179
aI180
aI182
aI184
aI188
aI191
aI192
aI193
aI194
aI195
aI196
asS'/usr/lib/python2.6/site-packages/nose/importer.py'
p388
(lp389
I22
aI24
aI32
aI33
aI34
aI36
aI37
aI39
aI45
aI46
aI51
aI54
aI55
aI57
aI58
aI59
aI60
aI62
aI63
aI64
aI66
aI67
aI68
aI69
aI70
aI71
aI72
aI73
aI77
aI78
aI79
aI84
aI86
aI87
aI88
aI89
aI90
aI91
aI92
aI93
aI94
aI97
aI98
aI99
aI100
aI101
aI102
aI103
aI104
aI105
aI106
aI111
aI112
aI113
aI114
aI115
aI116
aI117
aI128
aI129
aI131
aI132
aI133
aI134
aI135
aI136
aI140
aI141
aI142
aI143
aI144
aI145
aI146
aI150
aI151
aI152
asS'/usr/lib/python2.6/site-packages/routes/__init__.py'
p390
(lp391
I14
aI21
aI22
aI23
aI24
aI27
aI35
aI36
aI39
aI40
aI41
aI47
aI48
aI49
aI50
aI51
aI52
aI53
aI54
aI61
aI63
aI64
aI129
aI130
aI131
aI133
aI134
aI135
aI136
asS'/usr/lib/python2.6/site-packages/urllib3/util.py'
p392
(lp393
I8
aI9
aI10
aI12
aI13
aI21
aI22
aI25
aI28
aI32
aI33
aI35
aI38
aI43
aI54
aI87
aI166
aI174
aI175
aI226
asS'/usr/lib/python2.6/site-packages/jsonschema/_utils.py'
p394
(lp395
I1
aI2
aI3
aI4
aI6
aI9
aI13
aI15
aI16
aI18
aI19
aI20
aI22
aI23
aI25
aI26
aI28
aI31
aI32
aI34
aI37
aI41
aI45
aI47
aI51
aI56
aI57
aI58
aI60
aI61
aI62
aI65
aI74
aI89
aI100
aI101
aI102
aI103
aI104
aI106
aI109
aI122
aI133
aI134
aI135
aI136
aI137
aI138
aI139
aI142
aI153
aI155
aI156
aI157
aI158
aI161
aI162
aI165
aI173
aI174
aI175
aI178
aI184
aI186
aI188
aI191
aI201
aI202
asS'/usr/lib/python2.6/site-packages/sqlalchemy/orm/unitofwork.py'
p396
(lp397
I21
aI23
aI24
aI25
aI26
aI29
aI30
aI32
aI35
aI37
aI38
aI40
aI49
aI59
aI74
aI82
aI84
aI85
aI86
aI90
aI93
aI97
aI99
aI101
aI102
aI107
aI108
aI111
aI115
aI116
aI118
aI119
aI121
aI123
aI126
aI131
aI134
aI136
aI137
aI140
aI144
aI145
aI146
aI148
aI152
aI164
aI171
aI178
aI179
aI180
aI181
aI184
aI185
aI188
aI189
aI191
aI195
aI197
aI199
aI211
aI212
aI214
aI216
aI222
aI223
aI225
aI226
aI227
aI228
aI230
aI245
aI246
aI247
aI248
aI249
aI250
aI251
aI252
aI254
aI255
aI257
aI258
aI261
aI265
aI269
aI270
aI271
aI273
aI280
aI281
aI282
aI283
aI284
aI286
aI287
aI288
aI291
aI292
aI293
aI294
aI298
aI300
aI305
aI307
aI309
aI310
aI312
aI313
aI321
aI322
aI323
aI329
aI332
aI334
aI335
aI336
aI338
aI340
aI342
aI372
aI373
aI374
aI375
aI377
aI385
aI386
aI387
aI389
aI391
aI393
aI405
aI414
aI422
aI426
aI428
aI429
aI430
aI431
aI433
aI435
aI437
aI439
aI441
aI443
aI445
aI447
aI449
aI452
aI453
aI456
aI459
aI460
aI463
aI465
aI467
aI469
aI471
aI604
aI607
aI612
aI613
aI614
aI615
aI616
aI617
aI619
aI620
aI621
aI622
aI623
aI624
aI625
aI627
aI635
aI641
aI642
aI643
aI644
aI646
aI649
aI652
aI653
aI655
aI671
aI672
aI673
aI675
aI676
aI677
aI678
aI679
aI681
aI682
aI685
aI687
aI690
aI691
aI693
aI695
aI696
aI697
aI698
aI699
aI701
aI704
aI714
aI715
aI717
aI718
aI719
aI720
aI721
aI722
aI723
aI725
aI726
aI728
aI729
aI731
aI732
aI734
aI735
aI736
aI738
aI740
aI741
aI743
aI744
aI745
aI747
aI748
aI749
aI750
aI751
aI752
aI754
aI755
asS'/usr/lib/python2.6/site-packages/urllib3/poolmanager.py'
p398
(lp399
I7
aI9
aI10
aI11
aI12
aI13
aI16
aI19
aI20
aI21
aI24
aI27
aI49
aI51
aI56
aI65
aI90
aI102
aI131
aI135
aI137
aI140
aI150
aI157
asS'/usr/lib/python2.6/site-packages/sqlalchemy/orm/mapper.py'
p400
(lp401
I15
aI17
aI18
aI19
aI20
aI21
aI23
aI24
aI25
aI26
aI29
aI35
aI36
aI37
aI38
aI41
aI42
aI43
aI46
aI51
aI54
aI57
aI58
aI59
aI60
aI61
aI62
aI63
aI65
aI72
aI76
aI77
aI78
aI79
aI80
aI81
aI82
aI83
aI84
aI85
aI86
aI87
aI88
aI89
aI90
aI91
aI92
aI93
aI94
aI95
aI96
aI97
aI98
aI106
aI108
aI110
aI111
aI113
aI116
aI118
aI119
aI120
aI121
aI122
aI123
aI124
aI125
aI126
aI127
aI128
aI129
aI130
aI131
aI132
aI133
aI134
aI135
aI136
aI137
aI138
aI141
aI142
aI151
aI153
aI158
aI161
aI163
aI170
aI175
aI177
aI184
aI185
aI189
aI190
aI192
aI194
aI195
aI196
aI197
aI198
aI200
aI201
aI206
aI210
aI212
aI278
aI279
aI280
aI281
aI283
aI285
aI288
aI294
aI296
aI297
aI302
aI307
aI313
aI314
aI317
aI328
aI330
aI340
aI354
aI356
aI358
aI359
aI360
aI363
aI365
aI368
aI371
aI372
aI373
aI374
aI376
aI377
aI378
aI380
aI384
aI389
aI391
aI401
aI403
aI405
aI408
aI409
aI411
aI412
aI415
aI416
aI417
aI418
aI420
aI421
aI425
aI426
aI427
aI428
aI431
aI437
aI441
aI446
aI451
aI452
aI454
aI458
aI459
aI461
aI464
aI467
aI472
aI475
aI476
aI477
aI480
aI487
aI488
aI489
aI491
aI493
aI498
aI499
aI502
aI506
aI517
aI523
aI524
aI526
aI528
aI529
aI530
aI533
aI535
aI545
aI546
aI547
aI548
aI549
aI553
aI554
aI563
aI564
aI567
aI579
aI585
aI586
aI588
aI589
aI590
aI591
aI593
aI605
aI606
aI608
aI609
aI611
aI612
aI614
aI617
aI618
aI619
aI622
aI631
aI632
aI634
aI635
aI636
aI638
aI642
aI643
aI644
aI645
aI648
aI652
aI653
aI657
aI658
aI660
aI661
aI663
aI670
aI672
aI681
aI682
aI683
aI684
aI686
aI687
aI689
aI690
aI692
aI693
aI695
aI703
aI718
aI719
aI727
aI736
aI740
aI747
aI748
aI749
aI750
aI754
aI755
aI757
aI758
aI760
aI763
aI764
aI766
aI767
aI768
aI771
aI773
aI775
aI778
aI779
aI781
aI804
aI821
aI823
aI831
aI834
aI836
aI837
aI840
aI842
aI843
aI851
aI864
aI867
aI868
aI870
aI877
aI878
aI880
aI883
aI885
aI890
aI897
aI898
aI900
aI921
aI922
aI932
aI933
aI936
aI938
aI939
aI941
aI951
aI952
aI953
aI960
aI965
aI970
aI972
aI975
aI977
aI984
aI992
aI993
aI994
aI995
aI996
aI998
aI1009
aI1010
aI1011
aI1012
aI1013
aI1015
aI1018
aI1020
aI1030
aI1031
aI1032
aI1034
aI1036
aI1044
aI1046
aI1056
aI1057
aI1059
aI1067
aI1068
aI1070
aI1071
aI1072
aI1081
aI1082
aI1084
aI1085
aI1087
aI1088
aI1089
aI1091
aI1092
aI1094
aI1143
aI1159
aI1160
aI1162
aI1163
aI1164
aI1165
aI1166
aI1167
aI1168
aI1169
aI1172
aI1173
aI1177
aI1179
aI1180
aI1181
aI1182
aI1184
aI1185
aI1186
aI1187
aI1188
aI1190
aI1204
aI1208
aI1215
aI1216
aI1230
aI1231
aI1232
aI1233
aI1235
aI1236
aI1237
aI1238
aI1239
aI1243
aI1245
aI1246
aI1247
aI1250
aI1253
aI1254
aI1255
aI1259
aI1275
aI1277
aI1278
aI1279
aI1281
aI1282
aI1285
aI1287
aI1290
aI1292
aI1293
aI1294
aI1296
aI1297
aI1298
aI1300
aI1308
aI1309
aI1310
aI1311
aI1313
aI1314
aI1315
aI1316
aI1317
aI1320
aI1321
aI1323
aI1324
aI1331
aI1334
aI1339
aI1340
aI1341
aI1342
aI1345
aI1346
aI1357
aI1358
aI1359
aI1360
aI1361
aI1363
aI1364
aI1365
aI1367
aI1368
aI1370
aI1373
aI1374
aI1375
aI1376
aI1377
aI1379
aI1381
aI1384
aI1385
aI1386
aI1387
aI1388
aI1390
aI1392
aI1393
aI1395
aI1402
aI1403
aI1406
aI1407
aI1410
aI1411
aI1414
aI1419
aI1426
aI1427
aI1430
aI1433
aI1436
aI1437
aI1439
aI1444
aI1447
aI1448
aI1449
aI1451
aI1453
aI1456
aI1463
aI1466
aI1470
aI1471
aI1473
aI1474
aI1477
aI1479
aI1480
aI1481
aI1482
aI1485
aI1486
aI1489
aI1490
aI1491
aI1492
aI1495
aI1496
aI1497
aI1498
aI1499
aI1500
aI1504
aI1505
aI1506
aI1510
aI1511
aI1514
aI1522
aI1523
aI1525
aI1526
aI1527
aI1531
aI1534
aI1536
aI1537
aI1539
aI1540
aI1542
aI1544
aI1545
aI1546
aI1548
aI1551
aI1552
aI1553
aI1555
aI1556
aI1558
aI1559
aI1560
aI1562
aI1565
aI1566
aI1568
aI1569
aI1573
aI1574
aI1576
aI1577
aI1579
aI1581
aI1582
aI1584
aI1585
aI1586
aI1587
aI1588
aI1590
aI1591
aI1596
aI1604
aI1605
aI1606
aI1612
aI1614
aI1615
aI1616
aI1617
aI1619
aI1623
aI1624
aI1625
aI1627
aI1632
aI1643
aI1646
aI1653
aI1654
aI1655
aI1656
aI1657
aI1659
aI1669
aI1671
aI1675
aI1676
aI1677
aI1681
aI1682
aI1684
aI1685
aI1686
aI1687
aI1689
aI1692
aI1712
aI1713
aI1715
aI1720
aI1721
aI1723
aI1726
aI1727
aI1728
aI1729
aI1730
aI1731
aI1732
aI1733
aI1735
aI1738
aI1746
aI1748
aI1751
aI1770
aI1786
aI1789
aI1791
aI1792
aI1798
aI1808
aI1816
aI1817
aI1819
aI1822
aI1823
aI1824
aI1828
aI1830
aI1831
aI1836
aI1837
aI1838
aI1840
aI1841
aI1844
asS'/usr/lib/python2.6/site-packages/paste/util/converters.py'
p402
(lp403
I3
aI4
aI13
aI15
aI16
aI21
aI23
aI24
asS'/usr/lib/python2.6/site-packages/sqlalchemy/engine/base.py'
p404
(lp405
I433
aI434
aI435
aI436
aI437
aI530
aI531
aI532
aI533
aI534
aI535
aI536
aI553
aI571
aI572
aI588
aI668
aI669
aI672
aI719
aI722
aI724
aI725
aI744
aI746
aI747
aI748
aI749
aI799
aI800
aI803
aI804
aI805
aI806
aI822
aI823
aI824
aI835
aI836
aI839
aI840
aI841
aI842
aI843
aI844
aI847
aI848
aI864
aI865
aI866
aI870
aI871
aI872
aI874
aI886
aI887
aI888
aI891
aI892
aI893
aI894
aI896
aI897
aI898
aI899
aI900
aI901
aI936
aI937
aI938
aI944
aI947
aI948
aI949
aI954
aI957
aI958
aI1005
aI1006
aI1007
aI1034
aI1036
aI1037
aI1053
aI1054
aI1060
aI1100
aI1101
aI1102
aI1103
aI1104
aI1105
aI1106
aI1109
aI1129
aI1134
aI1153
aI1154
aI1157
aI1158
aI1160
aI1161
aI1216
aI1229
aI1309
aI1310
aI1311
aI1320
aI1323
aI1326
aI1327
aI1348
aI1409
aI1410
aI1411
aI1412
aI1413
aI1414
aI1415
aI1419
aI1422
aI1433
aI1434
aI1437
aI1438
aI1439
aI1441
aI1442
aI1443
aI1444
aI1446
aI1448
aI1449
aI1450
aI1451
aI1453
aI1458
aI1460
aI1461
aI1462
aI1466
aI1468
aI1470
aI1474
aI1478
aI1479
aI1480
aI1481
aI1482
aI1484
aI1490
aI1492
aI1508
aI1531
aI1532
aI1533
aI1534
aI1538
aI1541
aI1542
aI1560
aI1568
aI1576
aI1592
aI1595
aI1600
aI1605
aI1608
aI1609
aI1619
aI1620
aI1622
aI1625
aI1631
aI1636
aI1637
aI1638
aI1639
aI1640
aI1660
aI1661
aI1662
aI1663
aI1665
aI1666
aI1800
aI1801
aI1806
aI1811
aI1812
aI1814
aI1828
aI1829
aI1830
aI1833
aI1834
aI1873
aI1875
aI1878
asS'/usr/lib/python2.6/site-packages/nose/plugins/cover.py'
p406
(lp407
I96
aI97
aI98
aI136
aI144
asS'/usr/lib/python2.6/site-packages/webob/multidict.py'
p408
(lp409
I26
aI29
aI30
aI32
aI35
aI36
aI38
aI39
aI47
aI51
aI52
aI53
aI62
aI63
aI65
aI66
aI69
aI70
aI75
aI76
aI77
aI78
aI91
aI162
aI163
aI165
aI200
aI202
aI203
aI210
aI234
aI265
aI266
aI268
aI269
aI270
aI281
aI283
aI292
aI300
aI301
aI302
aI305
aI314
aI433
aI436
aI437
aI438
aI439
aI440
aI522
aI541
asS'/usr/lib/python2.6/site-packages/pylons/controllers/util.py'
p410
(lp411
I192
aI193
aI194
aI195
aI196
asS'/usr/lib/python2.6/site-packages/pygments/formatters/terminal.py'
p412
(lp413
I10
aI12
aI13
aI15
aI16
aI19
aI24
aI25
aI27
aI28
aI29
aI30
aI31
aI32
aI33
aI34
aI35
aI36
aI37
aI38
aI39
aI40
aI41
aI42
aI43
aI44
aI46
aI47
aI48
aI49
aI50
aI52
aI56
aI74
aI75
aI76
aI77
aI79
aI85
aI93
asS'/afs/cern.ch/user/a/aalvarez/Source/fts3-rest/src/fts3rest/fts3rest/tests/functional/test_delegation.py'
p414
(lp415
I1
aI2
aI3
aI4
aI5
aI6
aI7
aI8
aI9
aI10
aI12
aI13
aI15
aI16
aI17
aI18
aI21
aI22
aI23
aI24
aI25
aI26
aI27
aI28
aI29
aI30
aI32
aI33
aI34
aI35
aI36
aI37
aI38
aI39
aI40
aI42
aI43
aI44
aI45
aI46
aI47
aI48
aI49
aI50
aI52
aI53
aI54
aI55
aI56
aI58
aI59
aI60
aI61
aI62
aI63
aI64
aI65
aI66
aI67
aI68
aI69
aI70
aI71
aI72
aI73
aI74
aI75
aI77
aI78
aI79
aI80
aI81
aI82
aI83
aI85
aI86
aI87
aI88
aI89
aI91
aI93
aI94
aI95
aI96
aI97
aI99
aI100
aI101
aI102
aI103
aI104
aI105
aI106
aI108
aI110
aI111
aI112
aI113
aI114
aI115
aI116
aI118
aI119
aI120
aI121
aI122
aI123
aI124
aI125
aI126
aI127
aI128
aI129
aI130
aI131
aI132
aI133
aI135
aI136
aI137
aI138
aI139
aI141
aI142
aI144
aI145
aI146
aI147
aI148
aI149
aI150
aI151
aI153
aI154
aI155
aI156
aI157
aI158
aI159
aI160
aI162
aI163
aI165
aI166
aI167
aI168
aI170
aI171
aI172
aI173
aI174
aI175
aI176
aI177
aI178
aI179
aI180
aI181
aI182
aI183
aI184
aI185
aI186
aI187
aI189
aI190
aI191
aI192
aI193
aI194
aI195
aI196
aI197
aI198
aI199
aI200
aI201
aI204
aI205
aI206
asS'/afs/cern.ch/user/a/aalvarez/Source/fts3-rest/src/fts3rest/fts3rest/lib/middleware/request_logger.py'
p416
(lp417
I1
aI2
aI4
aI7
aI11
aI13
aI14
aI16
aI17
aI18
aI19
aI20
aI21
aI22
aI23
aI25
aI26
aI28
aI29
aI30
aI31
aI32
aI33
aI34
aI36
aI39
aI41
aI42
aI43
aI44
aI45
aI49
aI50
aI52
asS'/afs/cern.ch/user/a/aalvarez/Source/fts3-rest/src/fts3rest/fts3rest/tests/functional/test_multiple.py'
p418
(lp419
I1
aI3
aI4
aI5
aI8
aI11
aI13
aI18
aI19
aI21
aI23
aI24
aI25
aI26
aI27
aI28
aI29
aI32
aI35
aI36
aI37
aI38
aI41
aI42
aI44
aI46
aI47
aI48
aI49
aI51
aI52
aI53
aI54
aI56
aI60
aI61
aI63
aI65
aI66
aI67
aI68
aI69
aI70
aI71
aI73
aI74
aI75
aI76
aI77
aI78
aI79
aI82
aI85
aI86
aI87
aI88
aI91
aI92
aI94
aI96
aI98
aI99
aI100
aI101
aI102
aI103
aI105
aI106
aI107
aI108
aI109
aI110
aI112
aI117
aI118
aI120
aI122
aI123
aI124
aI125
aI126
aI127
aI128
aI130
aI131
aI132
aI133
aI134
aI135
aI136
aI139
aI142
aI143
aI144
aI145
aI148
aI149
aI151
aI153
aI154
aI155
aI156
aI157
aI158
aI160
aI161
aI162
aI163
aI164
aI165
aI167
aI168
aI169
aI170
aI171
aI172
aI174
aI179
aI180
aI182
aI183
aI184
aI185
aI186
aI187
aI188
aI189
aI191
aI194
aI195
aI196
aI197
aI199
aI203
aI204
aI206
aI208
aI209
aI210
aI212
aI213
aI214
aI217
aI220
aI221
aI222
aI223
aI225
aI229
aI230
aI231
aI232
asS'/usr/lib/python2.6/site-packages/routes/mapper.py'
p420
(lp421
I98
aI99
aI100
aI101
aI102
aI103
aI104
aI105
aI106
aI107
aI108
aI109
aI110
aI111
aI112
aI113
aI114
aI115
aI116
aI117
aI118
aI119
aI120
aI121
aI122
aI123
aI124
aI127
aI128
aI132
aI134
aI154
aI155
aI158
aI159
aI160
aI161
aI162
aI166
aI171
aI172
aI174
aI177
aI179
aI180
aI181
aI182
aI183
aI184
aI185
aI186
aI187
aI235
aI236
aI237
aI239
aI243
aI244
aI245
aI249
aI250
aI251
aI255
aI257
aI269
aI270
aI271
aI275
aI278
aI279
aI286
aI287
aI288
aI289
aI290
aI291
aI292
aI296
aI297
aI298
aI300
aI301
aI336
aI337
aI339
aI340
asS'/usr/lib/python2.6/site-packages/mako/util.py'
p422
(lp423
I71
aI73
aI76
asS'/usr/lib/python2.6/site-packages/sqlalchemy/orm/interfaces.py'
p424
(lp425
I15
aI17
aI19
aI20
aI21
aI23
aI24
aI41
aI44
aI45
aI47
aI48
aI49
aI51
aI64
aI65
aI68
aI71
aI74
aI85
aI110
aI142
aI165
aI182
aI200
aI205
aI232
aI237
aI249
aI254
aI257
aI259
aI264
aI269
aI274
aI281
aI288
aI296
aI303
aI309
aI319
aI329
aI334
aI336
aI346
aI383
aI390
aI392
aI393
aI395
aI398
aI399
aI401
aI407
aI408
aI409
aI411
aI420
aI427
aI435
aI437
aI445
aI447
aI456
aI458
aI464
aI476
aI482
aI484
aI485
aI486
aI487
aI489
aI492
aI499
aI503
aI507
aI511
aI530
aI544
aI559
aI566
aI568
aI569
aI570
aI576
aI578
aI579
aI580
aI581
aI582
aI584
aI585
aI586
aI587
aI589
aI590
aI592
aI593
aI595
aI596
aI597
aI599
aI600
aI601
aI603
aI609
aI618
aI630
aI631
aI633
aI636
aI644
aI645
aI647
aI650
aI655
aI658
aI660
aI664
aI667
aI670
aI675
aI678
aI696
aI706
aI717
aI778
aI784
aI786
aI795
aI803
aI813
aI816
aI818
aI821
aI828
aI832
aI855
aI857
aI858
aI859
aI860
aI861
aI863
aI866
aI869
aI870
aI872
aI882
aI883
aI885
aI896
aI902
aI908
aI911
aI914
aI917
aI922
aI925
aI928
aI931
aI934
aI937
aI940
aI946
aI949
aI952
aI955
aI958
aI961
asS'/usr/lib/python2.6/site-packages/jsonschema/__init__.py'
p426
(lp427
I10
aI12
aI15
aI18
aI23
asS'/usr/lib/python2.6/site-packages/requests/structures.py'
p428
(lp429
I9
aI11
aI12
aI14
aI15
aI16
aI20
aI23
aI31
aI34
aI38
aI40
aI46
aI50
aI54
aI58
aI61
aI66
aI73
aI74
aI76
aI77
aI78
aI80
aI83
aI88
asS'/usr/lib/python2.6/site-packages/pygments/util.py'
p430
(lp431
I10
aI11
aI12
aI15
aI16
aI23
aI24
aI27
aI30
aI33
aI34
aI37
aI47
aI48
aI49
aI50
aI67
aI68
aI69
aI70
aI81
aI82
aI83
aI85
aI86
aI93
aI105
aI110
aI115
aI116
aI119
aI165
aI178
aI185
aI186
aI203
aI204
aI205
aI206
aI207
aI208
asS'/usr/lib/python2.6/site-packages/sqlalchemy/engine/strategies.py'
p432
(lp433
I46
aI48
aI50
aI52
aI53
aI56
aI57
aI58
aI59
aI60
aI62
aI64
aI67
aI70
aI71
aI74
aI75
aI76
aI77
aI78
aI81
aI83
aI84
aI85
aI89
aI90
aI91
aI92
aI93
aI94
aI95
aI96
aI97
aI98
aI106
aI107
aI108
aI109
aI113
aI122
aI137
aI140
asS'/usr/lib/python2.6/site-packages/pygments/console.py'
p434
(lp435
I10
aI12
aI14
aI15
aI16
aI18
aI19
aI20
aI21
aI22
aI23
aI25
aI26
aI27
aI28
aI30
aI31
aI32
aI33
aI34
aI36
aI38
aI39
aI40
aI41
aI44
aI48
aI52
asS'/usr/lib/python2.6/site-packages/mako/lookup.py'
p436
(lp437
I67
aI68
aI70
aI71
aI72
aI73
aI75
aI76
aI77
aI78
aI79
aI80
aI81
aI82
aI83
aI84
aI85
aI86
aI87
aI88
aI89
aI90
aI92
aI93
aI94
aI98
asS'/usr/lib/python2.6/site-packages/sqlalchemy/sql/expression.py'
p438
(lp439
I243
aI245
aI246
aI247
aI250
aI306
aI350
aI365
aI375
aI376
aI377
aI749
aI752
aI855
aI856
aI858
aI882
aI885
aI888
aI891
aI894
aI895
aI901
aI903
aI906
aI909
aI912
aI915
aI917
aI920
aI952
aI972
aI973
aI974
aI981
aI983
aI994
aI995
aI996
aI997
aI998
aI999
aI1010
aI1011
aI1012
aI1016
aI1063
aI1072
aI1086
aI1089
aI1095
aI1096
aI1098
aI1099
aI1100
aI1101
aI1103
aI1104
aI1105
aI1168
aI1169
aI1170
aI1171
aI1173
aI1174
aI1181
aI1182
aI1185
aI1188
aI1215
aI1253
aI1256
aI1274
aI1337
aI1345
aI1347
aI1350
aI1382
aI1383
aI1390
aI1393
aI1395
aI1398
aI1404
aI1408
aI1409
aI1410
aI1415
aI1416
aI1418
aI1422
aI1522
aI1525
aI1527
aI1528
aI1529
aI1532
aI1572
aI1576
aI1577
aI1581
aI1582
aI1583
aI1584
aI1585
aI1590
aI1635
aI1636
aI1656
aI1660
aI1669
aI1672
aI1675
aI1676
aI1681
aI1701
aI1703
aI1709
aI1731
aI1787
aI1795
aI1834
aI1835
aI1837
aI1838
aI1839
aI1840
aI1841
aI1842
aI1843
aI1845
aI1847
aI1869
aI1883
aI1884
aI1890
aI1891
aI1917
aI1918
aI1919
aI1920
aI1970
aI1971
aI1973
aI1974
aI1975
aI1976
aI1977
aI1978
aI1980
aI1982
aI1985
aI1988
aI1989
aI1990
aI1991
aI1999
aI2015
aI2118
aI2119
aI2120
aI2121
aI2123
aI2124
aI2134
aI2151
aI2154
aI2158
aI2161
aI2162
aI2171
aI2173
aI2180
aI2186
aI2187
aI2396
aI2397
aI2398
aI2399
aI2400
aI2401
aI2404
aI2408
aI2411
aI2412
aI2415
aI2421
aI2422
aI2424
aI2425
aI2427
aI2428
aI2429
aI2437
aI2440
aI2502
aI2503
aI2505
aI2508
aI2510
aI2511
aI2597
aI2603
aI2604
aI2623
aI2624
aI2626
aI2627
aI2628
aI2629
aI2630
aI2631
aI2632
aI2633
aI2634
aI2635
aI2648
aI2650
aI2653
aI2654
aI2673
aI2685
aI2686
aI2704
aI2707
aI2840
aI2841
aI2842
aI2843
aI2851
aI2854
aI2855
aI2860
aI2861
aI2863
aI2871
aI2884
aI2885
aI2890
aI2919
aI2920
aI2921
aI2922
aI2923
aI2924
aI2932
aI2939
aI2942
aI2954
aI2959
aI2964
aI2968
aI2974
aI2975
aI2976
aI2992
aI2993
aI2994
aI2995
aI2996
aI2997
aI2999
aI3000
aI3042
aI3043
aI3044
aI3045
aI3083
aI3086
aI3088
aI3229
aI3230
aI3232
aI3233
aI3235
aI3237
aI3239
aI3242
aI3246
aI3247
aI3248
aI3250
aI3252
aI3253
aI3254
aI3255
aI3257
aI3260
aI3262
aI3265
aI3267
aI3278
aI3280
aI3281
aI3282
aI3284
aI3297
aI3303
aI3319
aI3328
aI3331
aI3334
aI3335
aI3336
aI3374
aI3376
aI3489
aI3492
aI3495
aI3496
aI3499
aI3500
aI3505
aI3506
aI3579
aI3580
aI3581
aI3584
aI3590
aI3608
aI3609
aI3623
aI3624
aI3628
aI3629
aI3630
aI3645
aI3646
aI3647
aI3648
aI3649
aI3652
aI3653
aI3685
aI3686
aI3687
aI3688
aI3691
aI3692
aI3726
aI3727
aI3728
aI3729
aI3733
asS'/afs/cern.ch/user/a/aalvarez/Source/fts3-rest/src/fts3rest/fts3rest/config/__init__.py'
p440
(lp441
I1
asS'/usr/lib/python2.6/site-packages/pylons/test.py'
p442
(lp443
I70
aI71
aI72
aI73
aI74
aI77
aI78
asS'/usr/lib/python2.6/site-packages/pylons/error.py'
p444
(lp445
I6
aI7
aI9
aI10
aI14
aI16
aI24
aI26
aI33
aI36
aI37
aI44
asS'/usr/lib/python2.6/site-packages/pygments/formatter.py'
p446
(lp447
I10
aI12
aI14
aI15
aI17
aI20
aI21
aI22
aI26
aI51
aI54
aI57
aI60
aI64
aI66
aI67
aI68
aI69
aI70
aI71
aI72
aI74
aI84
asS'/afs/cern.ch/user/a/aalvarez/Source/fts3-rest/src/fts3rest/fts3rest/lib/app_globals.py'
p448
(lp449
I1
aI3
aI4
aI7
aI11
aI13
aI19
asS'/afs/cern.ch/user/a/aalvarez/Source/fts3-rest/src/fts3rest/fts3rest/tests/functional/test_archive.py'
p450
(lp451
I1
aI2
aI3
aI4
aI5
aI6
aI8
aI9
aI11
aI12
aI13
aI14
aI15
aI16
aI17
aI18
aI19
aI20
aI21
aI22
aI23
aI24
aI25
aI26
aI27
aI28
aI29
aI30
aI31
aI32
aI35
aI36
aI37
aI38
aI39
aI41
aI42
aI43
aI44
aI45
aI46
aI47
aI48
aI49
aI50
aI51
aI52
aI53
aI54
aI55
aI56
aI57
aI58
aI59
aI60
aI61
aI62
aI63
aI64
aI65
aI66
aI67
aI68
aI69
aI70
aI71
aI74
aI75
aI76
aI77
aI78
aI79
aI81
aI82
aI83
aI84
aI85
aI86
aI88
aI89
aI90
aI91
aI92
aI93
aI95
aI96
aI97
aI98
aI99
aI102
aI103
aI105
aI107
aI108
asS'/afs/cern.ch/user/a/aalvarez/Source/fts3-rest/src/fts3rest/fts3rest/websetup.py'
p452
(lp453
I1
aI2
aI3
aI5
aI7
aI8
aI10
aI12
aI14
aI17
aI21
aI24
aI25
aI26
aI29
aI30
asS'/usr/lib/python2.6/site-packages/nose/core.py'
p454
(lp455
I35
aI37
aI38
aI42
aI43
aI44
aI45
aI51
aI52
aI56
aI57
aI60
aI61
aI62
aI63
aI64
aI278
aI279
aI284
aI290
aI291
aI292
aI293
aI294
aI295
aI296
aI298
asS'/usr/lib/python2.6/site-packages/sqlalchemy/engine/__init__.py'
p456
(lp457
I221
aI222
aI223
aI238
aI239
aI240
aI241
aI246
aI247
aI248
aI249
aI250
aI251
aI252
aI253
aI254
aI255
aI256
aI257
aI259
aI260
asS'/usr/lib/python2.6/site-packages/requests/models.py'
p458
(lp459
I8
aI10
aI11
aI13
aI14
aI15
aI16
aI18
aI19
aI20
aI21
aI22
aI26
aI30
aI31
aI32
aI34
aI37
aI38
aI59
aI86
aI136
aI137
aI145
aI157
aI179
aI181
aI182
aI183
aI184
aI185
aI186
aI187
aI188
aI189
aI213
aI216
aI232
aI249
aI251
aI263
aI266
aI272
aI322
aI330
aI392
aI405
aI419
aI422
aI424
aI459
aI462
aI466
aI470
aI478
aI484
aI509
aI536
aI560
aI593
aI606
aI624
aI640
asS'/usr/lib/python2.6/site-packages/pygments/style.py'
p460
(lp461
I10
aI12
aI15
aI17
aI18
aI19
aI20
aI21
aI23
aI24
aI25
aI26
aI27
aI28
aI29
aI34
aI36
aI37
aI38
aI39
aI40
aI41
aI42
aI43
aI44
aI47
aI48
aI49
aI50
aI52
aI53
aI54
aI55
aI56
aI57
aI58
aI59
aI60
aI62
aI64
aI66
aI67
aI68
aI70
aI72
aI75
aI77
aI79
aI80
aI81
aI82
aI83
aI84
aI85
aI86
aI87
aI88
aI89
aI90
aI93
aI96
aI99
aI100
aI101
aI103
aI107
aI108
aI111
aI114
aI117
asS'/usr/lib/python2.6/site-packages/nose/util.py'
p462
(lp463
I129
aI165
aI166
aI191
aI194
aI195
aI196
aI197
aI198
aI199
aI202
aI251
aI252
aI253
aI254
aI255
aI258
aI259
aI260
aI261
aI262
aI264
aI265
aI266
aI267
aI276
aI277
aI278
aI279
aI280
aI281
aI282
aI294
aI295
aI296
aI297
aI298
aI299
aI300
aI301
aI306
aI307
aI308
aI309
aI310
aI311
aI325
aI326
aI327
aI328
aI330
aI331
aI429
aI430
aI431
aI461
aI463
aI465
aI466
aI467
aI468
aI483
aI484
aI485
aI486
aI487
aI501
aI503
aI505
aI507
aI508
aI510
aI511
aI618
aI619
aI620
aI621
aI622
asS'/afs/cern.ch/user/a/aalvarez/Source/fts3-rest/src/fts3rest/fts3rest/lib/helpers/jsonify.py'
p464
(lp465
I1
aI2
aI3
aI4
aI5
aI8
aI10
aI11
aI12
aI14
aI15
aI16
aI18
aI19
aI20
aI21
aI22
aI23
aI24
aI25
aI27
aI32
aI46
aI47
aI49
aI50
asS'/usr/lib/python2.6/site-packages/pygments/token.py'
p466
(lp467
I10
aI11
aI12
aI17
aI18
aI20
aI21
aI22
aI23
aI24
aI25
aI26
aI27
aI29
aI31
aI33
aI39
aI40
aI42
aI43
aI44
aI45
aI46
aI48
aI49
aI51
aI52
aI55
aI58
aI59
aI60
aI62
aI65
aI66
aI67
aI68
aI69
aI70
aI71
aI72
aI75
aI79
aI80
aI81
aI84
aI93
aI122
aI123
aI125
aI126
aI127
aI128
aI130
aI131
aI132
aI133
aI134
aI135
aI136
aI138
aI139
aI140
aI141
aI142
aI143
aI144
aI145
aI146
aI147
aI148
aI149
aI150
aI151
aI152
aI153
aI154
aI155
aI156
aI158
aI159
aI161
aI162
aI163
aI164
aI165
aI166
aI167
aI168
aI169
aI170
aI171
aI172
aI174
aI175
aI176
aI177
aI178
aI179
aI181
aI182
aI184
aI186
aI187
aI188
aI189
aI190
aI192
aI193
aI194
aI195
aI196
aI197
aI198
aI199
aI200
aI201
aI202
asS'/usr/lib/python2.6/site-packages/sqlalchemy/orm/evaluator.py'
p468
(lp469
I1
aI2
aI3
aI6
aI7
aI9
aI11
aI14
aI17
aI19
aI20
aI26
aI29
aI32
aI40
aI65
aI85
aI96
asS'/usr/lib/python2.6/site-packages/chardet/__init__.py'
p470
(lp471
I18
aI20
asS'/usr/lib/python2.6/site-packages/beaker/ext/sqla.py'
p472
(lp473
I1
aI2
aI3
aI5
aI6
aI7
aI8
aI10
aI11
aI15
aI17
aI18
aI19
aI21
aI49
aI52
aI57
aI78
aI92
aI98
aI101
aI104
aI107
aI110
aI114
aI115
aI117
asS'/usr/lib/python2.6/site-packages/paste/script/command.py'
p474
(lp475
I133
aI167
aI170
aI171
aI172
aI173
aI174
aI175
aI176
aI178
aI179
aI181
aI183
aI184
aI185
aI186
aI189
aI202
aI206
aI210
aI214
aI218
aI219
aI220
aI225
aI226
aI229
aI230
aI231
aI232
aI233
aI234
aI235
aI236
aI754
aI755
aI756
aI757
asS'/usr/lib/python2.6/site-packages/sqlalchemy/orm/dynamic.py'
p476
(lp477
I12
aI14
aI15
aI17
aI20
aI21
aI22
aI24
aI25
aI26
aI28
aI29
aI30
aI31
aI32
aI33
aI34
aI37
aI40
aI42
aI43
aI44
aI47
aI48
aI49
aI50
aI51
aI52
aI58
aI64
aI71
aI81
aI91
aI103
aI109
aI121
aI124
aI128
aI139
aI143
aI147
aI148
aI150
aI155
aI158
aI161
aI164
aI167
aI170
aI171
aI173
aI178
aI187
aI189
aI191
aI200
aI209
aI218
aI242
aI245
aI249
aI250
aI253
aI258
aI259
aI261
asS'/usr/lib/python2.6/site-packages/nose/failure.py'
p478
(lp479
I15
aI16
aI17
aI18
aI19
aI22
aI23
aI26
aI27
ass.